ARM GAS  C:\Users\ridel\AppData\Local\Temp\ccOCejYh.s 			page 1


   1              		.cpu cortex-m4
   2              		.arch armv7e-m
   3              		.fpu fpv4-sp-d16
   4              		.eabi_attribute 27, 1
   5              		.eabi_attribute 28, 1
   6              		.eabi_attribute 20, 1
   7              		.eabi_attribute 21, 1
   8              		.eabi_attribute 23, 3
   9              		.eabi_attribute 24, 1
  10              		.eabi_attribute 25, 1
  11              		.eabi_attribute 26, 1
  12              		.eabi_attribute 30, 1
  13              		.eabi_attribute 34, 1
  14              		.eabi_attribute 18, 4
  15              		.file	"stm32f4xx_hal_i2s_ex.c"
  16              		.text
  17              	.Ltext0:
  18              		.cfi_sections	.debug_frame
  19              		.section	.text.I2SEx_FullDuplexWaitFlagStateUntilTimeout,"ax",%progbits
  20              		.align	1
  21              		.syntax unified
  22              		.thumb
  23              		.thumb_func
  25              	I2SEx_FullDuplexWaitFlagStateUntilTimeout:
  26              	.LVL0:
  27              	.LFB147:
  28              		.file 1 "Drivers/STM32F4xx_HAL_Driver/Src/stm32f4xx_hal_i2s_ex.c"
   1:Drivers/STM32F4xx_HAL_Driver/Src/stm32f4xx_hal_i2s_ex.c **** /**
   2:Drivers/STM32F4xx_HAL_Driver/Src/stm32f4xx_hal_i2s_ex.c ****   ******************************************************************************
   3:Drivers/STM32F4xx_HAL_Driver/Src/stm32f4xx_hal_i2s_ex.c ****   * @file    stm32f4xx_hal_i2s_ex.c
   4:Drivers/STM32F4xx_HAL_Driver/Src/stm32f4xx_hal_i2s_ex.c ****   * @author  MCD Application Team
   5:Drivers/STM32F4xx_HAL_Driver/Src/stm32f4xx_hal_i2s_ex.c ****   * @brief   I2S HAL module driver.
   6:Drivers/STM32F4xx_HAL_Driver/Src/stm32f4xx_hal_i2s_ex.c ****   *          This file provides firmware functions to manage the following
   7:Drivers/STM32F4xx_HAL_Driver/Src/stm32f4xx_hal_i2s_ex.c ****   *          functionalities of I2S extension peripheral:
   8:Drivers/STM32F4xx_HAL_Driver/Src/stm32f4xx_hal_i2s_ex.c ****   *           + Extension features Functions
   9:Drivers/STM32F4xx_HAL_Driver/Src/stm32f4xx_hal_i2s_ex.c ****   ******************************************************************************
  10:Drivers/STM32F4xx_HAL_Driver/Src/stm32f4xx_hal_i2s_ex.c ****   * @attention
  11:Drivers/STM32F4xx_HAL_Driver/Src/stm32f4xx_hal_i2s_ex.c ****   *
  12:Drivers/STM32F4xx_HAL_Driver/Src/stm32f4xx_hal_i2s_ex.c ****   * Copyright (c) 2016 STMicroelectronics.
  13:Drivers/STM32F4xx_HAL_Driver/Src/stm32f4xx_hal_i2s_ex.c ****   * All rights reserved.
  14:Drivers/STM32F4xx_HAL_Driver/Src/stm32f4xx_hal_i2s_ex.c ****   *
  15:Drivers/STM32F4xx_HAL_Driver/Src/stm32f4xx_hal_i2s_ex.c ****   * This software is licensed under terms that can be found in the LICENSE file
  16:Drivers/STM32F4xx_HAL_Driver/Src/stm32f4xx_hal_i2s_ex.c ****   * in the root directory of this software component.
  17:Drivers/STM32F4xx_HAL_Driver/Src/stm32f4xx_hal_i2s_ex.c ****   * If no LICENSE file comes with this software, it is provided AS-IS.
  18:Drivers/STM32F4xx_HAL_Driver/Src/stm32f4xx_hal_i2s_ex.c ****   *
  19:Drivers/STM32F4xx_HAL_Driver/Src/stm32f4xx_hal_i2s_ex.c ****   ******************************************************************************
  20:Drivers/STM32F4xx_HAL_Driver/Src/stm32f4xx_hal_i2s_ex.c ****   @verbatim
  21:Drivers/STM32F4xx_HAL_Driver/Src/stm32f4xx_hal_i2s_ex.c ****   ==============================================================================
  22:Drivers/STM32F4xx_HAL_Driver/Src/stm32f4xx_hal_i2s_ex.c ****                     ##### I2S Extension features #####
  23:Drivers/STM32F4xx_HAL_Driver/Src/stm32f4xx_hal_i2s_ex.c ****   ==============================================================================
  24:Drivers/STM32F4xx_HAL_Driver/Src/stm32f4xx_hal_i2s_ex.c ****   [..]
  25:Drivers/STM32F4xx_HAL_Driver/Src/stm32f4xx_hal_i2s_ex.c ****      (#) In I2S full duplex mode, each SPI peripheral is able to manage sending and receiving
  26:Drivers/STM32F4xx_HAL_Driver/Src/stm32f4xx_hal_i2s_ex.c ****          data simultaneously using two data lines. Each SPI peripheral has an extended block
  27:Drivers/STM32F4xx_HAL_Driver/Src/stm32f4xx_hal_i2s_ex.c ****          called I2Sxext (i.e I2S2ext for SPI2 and I2S3ext for SPI3).
  28:Drivers/STM32F4xx_HAL_Driver/Src/stm32f4xx_hal_i2s_ex.c ****      (#) The extension block is not a full SPI IP, it is used only as I2S slave to
  29:Drivers/STM32F4xx_HAL_Driver/Src/stm32f4xx_hal_i2s_ex.c ****          implement full duplex mode. The extension block uses the same clock sources
  30:Drivers/STM32F4xx_HAL_Driver/Src/stm32f4xx_hal_i2s_ex.c ****          as its master.
ARM GAS  C:\Users\ridel\AppData\Local\Temp\ccOCejYh.s 			page 2


  31:Drivers/STM32F4xx_HAL_Driver/Src/stm32f4xx_hal_i2s_ex.c **** 
  32:Drivers/STM32F4xx_HAL_Driver/Src/stm32f4xx_hal_i2s_ex.c ****      (#) Both I2Sx and I2Sx_ext can be configured as transmitters or receivers.
  33:Drivers/STM32F4xx_HAL_Driver/Src/stm32f4xx_hal_i2s_ex.c **** 
  34:Drivers/STM32F4xx_HAL_Driver/Src/stm32f4xx_hal_i2s_ex.c ****      [..]
  35:Drivers/STM32F4xx_HAL_Driver/Src/stm32f4xx_hal_i2s_ex.c ****        (@) Only I2Sx can deliver SCK and WS to I2Sx_ext in full duplex mode, where
  36:Drivers/STM32F4xx_HAL_Driver/Src/stm32f4xx_hal_i2s_ex.c ****          I2Sx can be I2S2 or I2S3.
  37:Drivers/STM32F4xx_HAL_Driver/Src/stm32f4xx_hal_i2s_ex.c **** 
  38:Drivers/STM32F4xx_HAL_Driver/Src/stm32f4xx_hal_i2s_ex.c ****                   ##### How to use this driver #####
  39:Drivers/STM32F4xx_HAL_Driver/Src/stm32f4xx_hal_i2s_ex.c ****  ===============================================================================
  40:Drivers/STM32F4xx_HAL_Driver/Src/stm32f4xx_hal_i2s_ex.c ****  [..]
  41:Drivers/STM32F4xx_HAL_Driver/Src/stm32f4xx_hal_i2s_ex.c ****    Three operation modes are available within this driver :
  42:Drivers/STM32F4xx_HAL_Driver/Src/stm32f4xx_hal_i2s_ex.c **** 
  43:Drivers/STM32F4xx_HAL_Driver/Src/stm32f4xx_hal_i2s_ex.c ****    *** Polling mode IO operation ***
  44:Drivers/STM32F4xx_HAL_Driver/Src/stm32f4xx_hal_i2s_ex.c ****    =================================
  45:Drivers/STM32F4xx_HAL_Driver/Src/stm32f4xx_hal_i2s_ex.c ****    [..]
  46:Drivers/STM32F4xx_HAL_Driver/Src/stm32f4xx_hal_i2s_ex.c ****      (+) Send and receive in the same time an amount of data in blocking mode using HAL_I2SEx_Trans
  47:Drivers/STM32F4xx_HAL_Driver/Src/stm32f4xx_hal_i2s_ex.c **** 
  48:Drivers/STM32F4xx_HAL_Driver/Src/stm32f4xx_hal_i2s_ex.c ****    *** Interrupt mode IO operation ***
  49:Drivers/STM32F4xx_HAL_Driver/Src/stm32f4xx_hal_i2s_ex.c ****    ===================================
  50:Drivers/STM32F4xx_HAL_Driver/Src/stm32f4xx_hal_i2s_ex.c ****    [..]
  51:Drivers/STM32F4xx_HAL_Driver/Src/stm32f4xx_hal_i2s_ex.c ****      (+) Send and receive in the same time an amount of data in non blocking mode using HAL_I2SEx_T
  52:Drivers/STM32F4xx_HAL_Driver/Src/stm32f4xx_hal_i2s_ex.c ****      (+) At transmission/reception end of transfer HAL_I2SEx_TxRxCpltCallback is executed and user 
  53:Drivers/STM32F4xx_HAL_Driver/Src/stm32f4xx_hal_i2s_ex.c ****          add his own code by customization of function pointer HAL_I2SEx_TxRxCpltCallback
  54:Drivers/STM32F4xx_HAL_Driver/Src/stm32f4xx_hal_i2s_ex.c ****      (+) In case of transfer Error, HAL_I2S_ErrorCallback() function is executed and user can
  55:Drivers/STM32F4xx_HAL_Driver/Src/stm32f4xx_hal_i2s_ex.c ****          add his own code by customization of function pointer HAL_I2S_ErrorCallback
  56:Drivers/STM32F4xx_HAL_Driver/Src/stm32f4xx_hal_i2s_ex.c **** 
  57:Drivers/STM32F4xx_HAL_Driver/Src/stm32f4xx_hal_i2s_ex.c ****    *** DMA mode IO operation ***
  58:Drivers/STM32F4xx_HAL_Driver/Src/stm32f4xx_hal_i2s_ex.c ****    ==============================
  59:Drivers/STM32F4xx_HAL_Driver/Src/stm32f4xx_hal_i2s_ex.c ****    [..]
  60:Drivers/STM32F4xx_HAL_Driver/Src/stm32f4xx_hal_i2s_ex.c ****      (+) Send and receive an amount of data in non blocking mode (DMA) using HAL_I2SEx_TransmitRece
  61:Drivers/STM32F4xx_HAL_Driver/Src/stm32f4xx_hal_i2s_ex.c ****      (+) At transmission/reception end of transfer HAL_I2SEx_TxRxCpltCallback is executed and user 
  62:Drivers/STM32F4xx_HAL_Driver/Src/stm32f4xx_hal_i2s_ex.c ****          add his own code by customization of function pointer HAL_I2S_TxRxCpltCallback
  63:Drivers/STM32F4xx_HAL_Driver/Src/stm32f4xx_hal_i2s_ex.c ****      (+) In case of transfer Error, HAL_I2S_ErrorCallback() function is executed and user can
  64:Drivers/STM32F4xx_HAL_Driver/Src/stm32f4xx_hal_i2s_ex.c ****          add his own code by customization of function pointer HAL_I2S_ErrorCallback
  65:Drivers/STM32F4xx_HAL_Driver/Src/stm32f4xx_hal_i2s_ex.c ****      (+) __HAL_I2SEXT_FLUSH_RX_DR: In Full-Duplex Slave mode, if HAL_I2S_DMAStop is used to stop th
  66:Drivers/STM32F4xx_HAL_Driver/Src/stm32f4xx_hal_i2s_ex.c ****          communication, an error HAL_I2S_ERROR_BUSY_LINE_RX is raised as the master continue to tra
  67:Drivers/STM32F4xx_HAL_Driver/Src/stm32f4xx_hal_i2s_ex.c ****          In this case __HAL_I2SEXT_FLUSH_RX_DR macro must be used to flush the remaining data
  68:Drivers/STM32F4xx_HAL_Driver/Src/stm32f4xx_hal_i2s_ex.c ****          inside I2Sx and I2Sx_ext DR registers and avoid using DeInit/Init process for the next tra
  69:Drivers/STM32F4xx_HAL_Driver/Src/stm32f4xx_hal_i2s_ex.c ****   @endverbatim
  70:Drivers/STM32F4xx_HAL_Driver/Src/stm32f4xx_hal_i2s_ex.c **** 
  71:Drivers/STM32F4xx_HAL_Driver/Src/stm32f4xx_hal_i2s_ex.c ****  Additional Figure: The Extended block uses the same clock sources as its master.
  72:Drivers/STM32F4xx_HAL_Driver/Src/stm32f4xx_hal_i2s_ex.c **** 
  73:Drivers/STM32F4xx_HAL_Driver/Src/stm32f4xx_hal_i2s_ex.c ****                 +-----------------------+
  74:Drivers/STM32F4xx_HAL_Driver/Src/stm32f4xx_hal_i2s_ex.c ****     I2Sx_SCK    |                       |
  75:Drivers/STM32F4xx_HAL_Driver/Src/stm32f4xx_hal_i2s_ex.c ****  ----------+-->|          I2Sx         |------------------->I2Sx_SD(in/out)
  76:Drivers/STM32F4xx_HAL_Driver/Src/stm32f4xx_hal_i2s_ex.c ****          +--|-->|                       |
  77:Drivers/STM32F4xx_HAL_Driver/Src/stm32f4xx_hal_i2s_ex.c ****         |   |   +-----------------------+
  78:Drivers/STM32F4xx_HAL_Driver/Src/stm32f4xx_hal_i2s_ex.c ****         |   |
  79:Drivers/STM32F4xx_HAL_Driver/Src/stm32f4xx_hal_i2s_ex.c ****  I2S_WS |   |
  80:Drivers/STM32F4xx_HAL_Driver/Src/stm32f4xx_hal_i2s_ex.c ****  ------>|   |
  81:Drivers/STM32F4xx_HAL_Driver/Src/stm32f4xx_hal_i2s_ex.c ****         |   |   +-----------------------+
  82:Drivers/STM32F4xx_HAL_Driver/Src/stm32f4xx_hal_i2s_ex.c ****         |   +-->|                       |
  83:Drivers/STM32F4xx_HAL_Driver/Src/stm32f4xx_hal_i2s_ex.c ****         |       |       I2Sx_ext        |------------------->I2Sx_extSD(in/out)
  84:Drivers/STM32F4xx_HAL_Driver/Src/stm32f4xx_hal_i2s_ex.c ****          +----->|                       |
  85:Drivers/STM32F4xx_HAL_Driver/Src/stm32f4xx_hal_i2s_ex.c ****                 +-----------------------+
  86:Drivers/STM32F4xx_HAL_Driver/Src/stm32f4xx_hal_i2s_ex.c ****   */
  87:Drivers/STM32F4xx_HAL_Driver/Src/stm32f4xx_hal_i2s_ex.c **** 
ARM GAS  C:\Users\ridel\AppData\Local\Temp\ccOCejYh.s 			page 3


  88:Drivers/STM32F4xx_HAL_Driver/Src/stm32f4xx_hal_i2s_ex.c **** /* Includes ------------------------------------------------------------------*/
  89:Drivers/STM32F4xx_HAL_Driver/Src/stm32f4xx_hal_i2s_ex.c **** #include "stm32f4xx_hal.h"
  90:Drivers/STM32F4xx_HAL_Driver/Src/stm32f4xx_hal_i2s_ex.c **** 
  91:Drivers/STM32F4xx_HAL_Driver/Src/stm32f4xx_hal_i2s_ex.c **** /** @addtogroup STM32F4xx_HAL_Driver
  92:Drivers/STM32F4xx_HAL_Driver/Src/stm32f4xx_hal_i2s_ex.c ****   * @{
  93:Drivers/STM32F4xx_HAL_Driver/Src/stm32f4xx_hal_i2s_ex.c ****   */
  94:Drivers/STM32F4xx_HAL_Driver/Src/stm32f4xx_hal_i2s_ex.c **** 
  95:Drivers/STM32F4xx_HAL_Driver/Src/stm32f4xx_hal_i2s_ex.c **** #ifdef HAL_I2S_MODULE_ENABLED
  96:Drivers/STM32F4xx_HAL_Driver/Src/stm32f4xx_hal_i2s_ex.c **** 
  97:Drivers/STM32F4xx_HAL_Driver/Src/stm32f4xx_hal_i2s_ex.c **** /** @defgroup I2SEx I2SEx
  98:Drivers/STM32F4xx_HAL_Driver/Src/stm32f4xx_hal_i2s_ex.c ****   * @brief I2S Extended HAL module driver
  99:Drivers/STM32F4xx_HAL_Driver/Src/stm32f4xx_hal_i2s_ex.c ****   * @{
 100:Drivers/STM32F4xx_HAL_Driver/Src/stm32f4xx_hal_i2s_ex.c ****   */
 101:Drivers/STM32F4xx_HAL_Driver/Src/stm32f4xx_hal_i2s_ex.c **** 
 102:Drivers/STM32F4xx_HAL_Driver/Src/stm32f4xx_hal_i2s_ex.c **** #if defined (SPI_I2S_FULLDUPLEX_SUPPORT)
 103:Drivers/STM32F4xx_HAL_Driver/Src/stm32f4xx_hal_i2s_ex.c **** 
 104:Drivers/STM32F4xx_HAL_Driver/Src/stm32f4xx_hal_i2s_ex.c **** /* Private typedef -----------------------------------------------------------*/
 105:Drivers/STM32F4xx_HAL_Driver/Src/stm32f4xx_hal_i2s_ex.c **** /** @defgroup I2SEx_Private_Typedef I2S Extended Private Typedef
 106:Drivers/STM32F4xx_HAL_Driver/Src/stm32f4xx_hal_i2s_ex.c ****   * @{
 107:Drivers/STM32F4xx_HAL_Driver/Src/stm32f4xx_hal_i2s_ex.c ****   */
 108:Drivers/STM32F4xx_HAL_Driver/Src/stm32f4xx_hal_i2s_ex.c **** typedef enum
 109:Drivers/STM32F4xx_HAL_Driver/Src/stm32f4xx_hal_i2s_ex.c **** {
 110:Drivers/STM32F4xx_HAL_Driver/Src/stm32f4xx_hal_i2s_ex.c ****   I2S_USE_I2S      = 0x00U,   /*!< I2Sx should be used      */
 111:Drivers/STM32F4xx_HAL_Driver/Src/stm32f4xx_hal_i2s_ex.c ****   I2S_USE_I2SEXT   = 0x01U,   /*!< I2Sx_ext should be used  */
 112:Drivers/STM32F4xx_HAL_Driver/Src/stm32f4xx_hal_i2s_ex.c **** } I2S_UseTypeDef;
 113:Drivers/STM32F4xx_HAL_Driver/Src/stm32f4xx_hal_i2s_ex.c **** /**
 114:Drivers/STM32F4xx_HAL_Driver/Src/stm32f4xx_hal_i2s_ex.c ****   * @}
 115:Drivers/STM32F4xx_HAL_Driver/Src/stm32f4xx_hal_i2s_ex.c ****   */
 116:Drivers/STM32F4xx_HAL_Driver/Src/stm32f4xx_hal_i2s_ex.c **** /* Private define ------------------------------------------------------------*/
 117:Drivers/STM32F4xx_HAL_Driver/Src/stm32f4xx_hal_i2s_ex.c **** /* Private macro -------------------------------------------------------------*/
 118:Drivers/STM32F4xx_HAL_Driver/Src/stm32f4xx_hal_i2s_ex.c **** /* Private variables ---------------------------------------------------------*/
 119:Drivers/STM32F4xx_HAL_Driver/Src/stm32f4xx_hal_i2s_ex.c **** /* Private function prototypes -----------------------------------------------*/
 120:Drivers/STM32F4xx_HAL_Driver/Src/stm32f4xx_hal_i2s_ex.c **** /** @defgroup I2SEx_Private_Functions I2S Extended Private Functions
 121:Drivers/STM32F4xx_HAL_Driver/Src/stm32f4xx_hal_i2s_ex.c ****   * @{
 122:Drivers/STM32F4xx_HAL_Driver/Src/stm32f4xx_hal_i2s_ex.c ****   */
 123:Drivers/STM32F4xx_HAL_Driver/Src/stm32f4xx_hal_i2s_ex.c **** static void I2SEx_TxRxDMAHalfCplt(DMA_HandleTypeDef *hdma);
 124:Drivers/STM32F4xx_HAL_Driver/Src/stm32f4xx_hal_i2s_ex.c **** static void I2SEx_TxRxDMACplt(DMA_HandleTypeDef *hdma);
 125:Drivers/STM32F4xx_HAL_Driver/Src/stm32f4xx_hal_i2s_ex.c **** static void I2SEx_TxRxDMAError(DMA_HandleTypeDef *hdma);
 126:Drivers/STM32F4xx_HAL_Driver/Src/stm32f4xx_hal_i2s_ex.c **** static void I2SEx_RxISR_I2S(I2S_HandleTypeDef *hi2s);
 127:Drivers/STM32F4xx_HAL_Driver/Src/stm32f4xx_hal_i2s_ex.c **** static void I2SEx_RxISR_I2SExt(I2S_HandleTypeDef *hi2s);
 128:Drivers/STM32F4xx_HAL_Driver/Src/stm32f4xx_hal_i2s_ex.c **** static void I2SEx_TxISR_I2S(I2S_HandleTypeDef *hi2s);
 129:Drivers/STM32F4xx_HAL_Driver/Src/stm32f4xx_hal_i2s_ex.c **** static void I2SEx_TxISR_I2SExt(I2S_HandleTypeDef *hi2s);
 130:Drivers/STM32F4xx_HAL_Driver/Src/stm32f4xx_hal_i2s_ex.c **** static HAL_StatusTypeDef I2SEx_FullDuplexWaitFlagStateUntilTimeout(I2S_HandleTypeDef *hi2s,
 131:Drivers/STM32F4xx_HAL_Driver/Src/stm32f4xx_hal_i2s_ex.c ****                                                                    uint32_t Flag,
 132:Drivers/STM32F4xx_HAL_Driver/Src/stm32f4xx_hal_i2s_ex.c ****                                                                    uint32_t State,
 133:Drivers/STM32F4xx_HAL_Driver/Src/stm32f4xx_hal_i2s_ex.c ****                                                                    uint32_t Timeout,
 134:Drivers/STM32F4xx_HAL_Driver/Src/stm32f4xx_hal_i2s_ex.c ****                                                                    I2S_UseTypeDef i2sUsed);
 135:Drivers/STM32F4xx_HAL_Driver/Src/stm32f4xx_hal_i2s_ex.c **** /**
 136:Drivers/STM32F4xx_HAL_Driver/Src/stm32f4xx_hal_i2s_ex.c ****   * @}
 137:Drivers/STM32F4xx_HAL_Driver/Src/stm32f4xx_hal_i2s_ex.c ****   */
 138:Drivers/STM32F4xx_HAL_Driver/Src/stm32f4xx_hal_i2s_ex.c **** 
 139:Drivers/STM32F4xx_HAL_Driver/Src/stm32f4xx_hal_i2s_ex.c **** /**
 140:Drivers/STM32F4xx_HAL_Driver/Src/stm32f4xx_hal_i2s_ex.c ****   * @}
 141:Drivers/STM32F4xx_HAL_Driver/Src/stm32f4xx_hal_i2s_ex.c ****   */
 142:Drivers/STM32F4xx_HAL_Driver/Src/stm32f4xx_hal_i2s_ex.c **** 
 143:Drivers/STM32F4xx_HAL_Driver/Src/stm32f4xx_hal_i2s_ex.c **** /* Private functions ---------------------------------------------------------*/
 144:Drivers/STM32F4xx_HAL_Driver/Src/stm32f4xx_hal_i2s_ex.c **** /* Exported functions --------------------------------------------------------*/
ARM GAS  C:\Users\ridel\AppData\Local\Temp\ccOCejYh.s 			page 4


 145:Drivers/STM32F4xx_HAL_Driver/Src/stm32f4xx_hal_i2s_ex.c **** 
 146:Drivers/STM32F4xx_HAL_Driver/Src/stm32f4xx_hal_i2s_ex.c **** /** @addtogroup I2SEx I2SEx
 147:Drivers/STM32F4xx_HAL_Driver/Src/stm32f4xx_hal_i2s_ex.c ****   * @{
 148:Drivers/STM32F4xx_HAL_Driver/Src/stm32f4xx_hal_i2s_ex.c ****   */
 149:Drivers/STM32F4xx_HAL_Driver/Src/stm32f4xx_hal_i2s_ex.c **** 
 150:Drivers/STM32F4xx_HAL_Driver/Src/stm32f4xx_hal_i2s_ex.c **** /** @addtogroup I2SEx_Exported_Functions I2S Extended Exported Functions
 151:Drivers/STM32F4xx_HAL_Driver/Src/stm32f4xx_hal_i2s_ex.c ****   * @{
 152:Drivers/STM32F4xx_HAL_Driver/Src/stm32f4xx_hal_i2s_ex.c ****   */
 153:Drivers/STM32F4xx_HAL_Driver/Src/stm32f4xx_hal_i2s_ex.c **** 
 154:Drivers/STM32F4xx_HAL_Driver/Src/stm32f4xx_hal_i2s_ex.c **** /** @defgroup I2SEx_Exported_Functions_Group1 I2S Extended IO operation functions
 155:Drivers/STM32F4xx_HAL_Driver/Src/stm32f4xx_hal_i2s_ex.c ****   *  @brief   I2SEx IO operation functions
 156:Drivers/STM32F4xx_HAL_Driver/Src/stm32f4xx_hal_i2s_ex.c ****   *
 157:Drivers/STM32F4xx_HAL_Driver/Src/stm32f4xx_hal_i2s_ex.c **** @verbatim
 158:Drivers/STM32F4xx_HAL_Driver/Src/stm32f4xx_hal_i2s_ex.c ****  ===============================================================================
 159:Drivers/STM32F4xx_HAL_Driver/Src/stm32f4xx_hal_i2s_ex.c ****                        ##### IO operation functions#####
 160:Drivers/STM32F4xx_HAL_Driver/Src/stm32f4xx_hal_i2s_ex.c ****  ===============================================================================
 161:Drivers/STM32F4xx_HAL_Driver/Src/stm32f4xx_hal_i2s_ex.c ****     [..]
 162:Drivers/STM32F4xx_HAL_Driver/Src/stm32f4xx_hal_i2s_ex.c ****     This subsection provides a set of functions allowing to manage the I2S data
 163:Drivers/STM32F4xx_HAL_Driver/Src/stm32f4xx_hal_i2s_ex.c ****     transfers.
 164:Drivers/STM32F4xx_HAL_Driver/Src/stm32f4xx_hal_i2s_ex.c **** 
 165:Drivers/STM32F4xx_HAL_Driver/Src/stm32f4xx_hal_i2s_ex.c ****     (#) There are two modes of transfer:
 166:Drivers/STM32F4xx_HAL_Driver/Src/stm32f4xx_hal_i2s_ex.c ****        (++) Blocking mode : The communication is performed in the polling mode.
 167:Drivers/STM32F4xx_HAL_Driver/Src/stm32f4xx_hal_i2s_ex.c ****             The status of all data processing is returned by the same function
 168:Drivers/STM32F4xx_HAL_Driver/Src/stm32f4xx_hal_i2s_ex.c ****             after finishing transfer.
 169:Drivers/STM32F4xx_HAL_Driver/Src/stm32f4xx_hal_i2s_ex.c ****        (++) No-Blocking mode : The communication is performed using Interrupts
 170:Drivers/STM32F4xx_HAL_Driver/Src/stm32f4xx_hal_i2s_ex.c ****             or DMA. These functions return the status of the transfer startup.
 171:Drivers/STM32F4xx_HAL_Driver/Src/stm32f4xx_hal_i2s_ex.c ****             The end of the data processing will be indicated through the
 172:Drivers/STM32F4xx_HAL_Driver/Src/stm32f4xx_hal_i2s_ex.c ****             dedicated I2S IRQ when using Interrupt mode or the DMA IRQ when
 173:Drivers/STM32F4xx_HAL_Driver/Src/stm32f4xx_hal_i2s_ex.c ****             using DMA mode.
 174:Drivers/STM32F4xx_HAL_Driver/Src/stm32f4xx_hal_i2s_ex.c **** 
 175:Drivers/STM32F4xx_HAL_Driver/Src/stm32f4xx_hal_i2s_ex.c ****     (#) Blocking mode functions are :
 176:Drivers/STM32F4xx_HAL_Driver/Src/stm32f4xx_hal_i2s_ex.c ****         (++) HAL_I2SEx_TransmitReceive()
 177:Drivers/STM32F4xx_HAL_Driver/Src/stm32f4xx_hal_i2s_ex.c **** 
 178:Drivers/STM32F4xx_HAL_Driver/Src/stm32f4xx_hal_i2s_ex.c ****     (#) No-Blocking mode functions with Interrupt are :
 179:Drivers/STM32F4xx_HAL_Driver/Src/stm32f4xx_hal_i2s_ex.c ****         (++) HAL_I2SEx_TransmitReceive_IT()
 180:Drivers/STM32F4xx_HAL_Driver/Src/stm32f4xx_hal_i2s_ex.c ****         (++) HAL_I2SEx_FullDuplex_IRQHandler()
 181:Drivers/STM32F4xx_HAL_Driver/Src/stm32f4xx_hal_i2s_ex.c **** 
 182:Drivers/STM32F4xx_HAL_Driver/Src/stm32f4xx_hal_i2s_ex.c ****     (#) No-Blocking mode functions with DMA are :
 183:Drivers/STM32F4xx_HAL_Driver/Src/stm32f4xx_hal_i2s_ex.c ****         (++) HAL_I2SEx_TransmitReceive_DMA()
 184:Drivers/STM32F4xx_HAL_Driver/Src/stm32f4xx_hal_i2s_ex.c **** 
 185:Drivers/STM32F4xx_HAL_Driver/Src/stm32f4xx_hal_i2s_ex.c ****     (#) A set of Transfer Complete Callback are provided in non Blocking mode:
 186:Drivers/STM32F4xx_HAL_Driver/Src/stm32f4xx_hal_i2s_ex.c ****         (++) HAL_I2SEx_TxRxCpltCallback()
 187:Drivers/STM32F4xx_HAL_Driver/Src/stm32f4xx_hal_i2s_ex.c **** @endverbatim
 188:Drivers/STM32F4xx_HAL_Driver/Src/stm32f4xx_hal_i2s_ex.c ****   * @{
 189:Drivers/STM32F4xx_HAL_Driver/Src/stm32f4xx_hal_i2s_ex.c ****   */
 190:Drivers/STM32F4xx_HAL_Driver/Src/stm32f4xx_hal_i2s_ex.c **** /**
 191:Drivers/STM32F4xx_HAL_Driver/Src/stm32f4xx_hal_i2s_ex.c ****   * @brief  Full-Duplex Transmit/Receive data in blocking mode.
 192:Drivers/STM32F4xx_HAL_Driver/Src/stm32f4xx_hal_i2s_ex.c ****   * @param  hi2s pointer to a I2S_HandleTypeDef structure that contains
 193:Drivers/STM32F4xx_HAL_Driver/Src/stm32f4xx_hal_i2s_ex.c ****   *         the configuration information for I2S module
 194:Drivers/STM32F4xx_HAL_Driver/Src/stm32f4xx_hal_i2s_ex.c ****   * @param  pTxData a 16-bit pointer to the Transmit data buffer.
 195:Drivers/STM32F4xx_HAL_Driver/Src/stm32f4xx_hal_i2s_ex.c ****   * @param  pRxData a 16-bit pointer to the Receive data buffer.
 196:Drivers/STM32F4xx_HAL_Driver/Src/stm32f4xx_hal_i2s_ex.c ****   * @param  Size number of data sample to be sent:
 197:Drivers/STM32F4xx_HAL_Driver/Src/stm32f4xx_hal_i2s_ex.c ****   * @note   When a 16-bit data frame or a 16-bit data frame extended is selected during the I2S
 198:Drivers/STM32F4xx_HAL_Driver/Src/stm32f4xx_hal_i2s_ex.c ****   *         configuration phase, the Size parameter means the number of 16-bit data length
 199:Drivers/STM32F4xx_HAL_Driver/Src/stm32f4xx_hal_i2s_ex.c ****   *         in the transaction and when a 24-bit data frame or a 32-bit data frame is selected
 200:Drivers/STM32F4xx_HAL_Driver/Src/stm32f4xx_hal_i2s_ex.c ****   *         the Size parameter means the number of 16-bit data length.
 201:Drivers/STM32F4xx_HAL_Driver/Src/stm32f4xx_hal_i2s_ex.c ****   * @param  Timeout Timeout duration
ARM GAS  C:\Users\ridel\AppData\Local\Temp\ccOCejYh.s 			page 5


 202:Drivers/STM32F4xx_HAL_Driver/Src/stm32f4xx_hal_i2s_ex.c ****   * @note   The I2S is kept enabled at the end of transaction to avoid the clock de-synchronization
 203:Drivers/STM32F4xx_HAL_Driver/Src/stm32f4xx_hal_i2s_ex.c ****   *         between Master and Slave(example: audio streaming).
 204:Drivers/STM32F4xx_HAL_Driver/Src/stm32f4xx_hal_i2s_ex.c ****   * @retval HAL status
 205:Drivers/STM32F4xx_HAL_Driver/Src/stm32f4xx_hal_i2s_ex.c ****   */
 206:Drivers/STM32F4xx_HAL_Driver/Src/stm32f4xx_hal_i2s_ex.c **** HAL_StatusTypeDef HAL_I2SEx_TransmitReceive(I2S_HandleTypeDef *hi2s,
 207:Drivers/STM32F4xx_HAL_Driver/Src/stm32f4xx_hal_i2s_ex.c ****                                             uint16_t *pTxData,
 208:Drivers/STM32F4xx_HAL_Driver/Src/stm32f4xx_hal_i2s_ex.c ****                                             uint16_t *pRxData,
 209:Drivers/STM32F4xx_HAL_Driver/Src/stm32f4xx_hal_i2s_ex.c ****                                             uint16_t Size,
 210:Drivers/STM32F4xx_HAL_Driver/Src/stm32f4xx_hal_i2s_ex.c ****                                             uint32_t Timeout)
 211:Drivers/STM32F4xx_HAL_Driver/Src/stm32f4xx_hal_i2s_ex.c **** {
 212:Drivers/STM32F4xx_HAL_Driver/Src/stm32f4xx_hal_i2s_ex.c ****   uint32_t tmp1 = 0U;
 213:Drivers/STM32F4xx_HAL_Driver/Src/stm32f4xx_hal_i2s_ex.c **** 
 214:Drivers/STM32F4xx_HAL_Driver/Src/stm32f4xx_hal_i2s_ex.c ****   if (hi2s->State != HAL_I2S_STATE_READY)
 215:Drivers/STM32F4xx_HAL_Driver/Src/stm32f4xx_hal_i2s_ex.c ****   {
 216:Drivers/STM32F4xx_HAL_Driver/Src/stm32f4xx_hal_i2s_ex.c ****     return HAL_BUSY;
 217:Drivers/STM32F4xx_HAL_Driver/Src/stm32f4xx_hal_i2s_ex.c ****   }
 218:Drivers/STM32F4xx_HAL_Driver/Src/stm32f4xx_hal_i2s_ex.c **** 
 219:Drivers/STM32F4xx_HAL_Driver/Src/stm32f4xx_hal_i2s_ex.c ****   if ((pTxData == NULL) || (pRxData == NULL) || (Size == 0U))
 220:Drivers/STM32F4xx_HAL_Driver/Src/stm32f4xx_hal_i2s_ex.c ****   {
 221:Drivers/STM32F4xx_HAL_Driver/Src/stm32f4xx_hal_i2s_ex.c ****     return HAL_ERROR;
 222:Drivers/STM32F4xx_HAL_Driver/Src/stm32f4xx_hal_i2s_ex.c ****   }
 223:Drivers/STM32F4xx_HAL_Driver/Src/stm32f4xx_hal_i2s_ex.c **** 
 224:Drivers/STM32F4xx_HAL_Driver/Src/stm32f4xx_hal_i2s_ex.c ****   /* Process Locked */
 225:Drivers/STM32F4xx_HAL_Driver/Src/stm32f4xx_hal_i2s_ex.c ****   __HAL_LOCK(hi2s);
 226:Drivers/STM32F4xx_HAL_Driver/Src/stm32f4xx_hal_i2s_ex.c **** 
 227:Drivers/STM32F4xx_HAL_Driver/Src/stm32f4xx_hal_i2s_ex.c ****   tmp1 = hi2s->Instance->I2SCFGR & (SPI_I2SCFGR_DATLEN | SPI_I2SCFGR_CHLEN);
 228:Drivers/STM32F4xx_HAL_Driver/Src/stm32f4xx_hal_i2s_ex.c ****   /* Check the Data format: When a 16-bit data frame or a 16-bit data frame extended
 229:Drivers/STM32F4xx_HAL_Driver/Src/stm32f4xx_hal_i2s_ex.c ****      is selected during the I2S configuration phase, the Size parameter means the number
 230:Drivers/STM32F4xx_HAL_Driver/Src/stm32f4xx_hal_i2s_ex.c ****      of 16-bit data length in the transaction and when a 24-bit data frame or a 32-bit data
 231:Drivers/STM32F4xx_HAL_Driver/Src/stm32f4xx_hal_i2s_ex.c ****      frame is selected the Size parameter means the number of 16-bit data length. */
 232:Drivers/STM32F4xx_HAL_Driver/Src/stm32f4xx_hal_i2s_ex.c ****   if ((tmp1 == I2S_DATAFORMAT_24B) || (tmp1 == I2S_DATAFORMAT_32B))
 233:Drivers/STM32F4xx_HAL_Driver/Src/stm32f4xx_hal_i2s_ex.c ****   {
 234:Drivers/STM32F4xx_HAL_Driver/Src/stm32f4xx_hal_i2s_ex.c ****     hi2s->TxXferSize  = (Size << 1U);
 235:Drivers/STM32F4xx_HAL_Driver/Src/stm32f4xx_hal_i2s_ex.c ****     hi2s->TxXferCount = (Size << 1U);
 236:Drivers/STM32F4xx_HAL_Driver/Src/stm32f4xx_hal_i2s_ex.c ****     hi2s->RxXferSize  = (Size << 1U);
 237:Drivers/STM32F4xx_HAL_Driver/Src/stm32f4xx_hal_i2s_ex.c ****     hi2s->RxXferCount = (Size << 1U);
 238:Drivers/STM32F4xx_HAL_Driver/Src/stm32f4xx_hal_i2s_ex.c ****   }
 239:Drivers/STM32F4xx_HAL_Driver/Src/stm32f4xx_hal_i2s_ex.c ****   else
 240:Drivers/STM32F4xx_HAL_Driver/Src/stm32f4xx_hal_i2s_ex.c ****   {
 241:Drivers/STM32F4xx_HAL_Driver/Src/stm32f4xx_hal_i2s_ex.c ****     hi2s->TxXferSize  = Size;
 242:Drivers/STM32F4xx_HAL_Driver/Src/stm32f4xx_hal_i2s_ex.c ****     hi2s->TxXferCount = Size;
 243:Drivers/STM32F4xx_HAL_Driver/Src/stm32f4xx_hal_i2s_ex.c ****     hi2s->RxXferSize  = Size;
 244:Drivers/STM32F4xx_HAL_Driver/Src/stm32f4xx_hal_i2s_ex.c ****     hi2s->RxXferCount = Size;
 245:Drivers/STM32F4xx_HAL_Driver/Src/stm32f4xx_hal_i2s_ex.c ****   }
 246:Drivers/STM32F4xx_HAL_Driver/Src/stm32f4xx_hal_i2s_ex.c **** 
 247:Drivers/STM32F4xx_HAL_Driver/Src/stm32f4xx_hal_i2s_ex.c ****   /* Set state and reset error code */
 248:Drivers/STM32F4xx_HAL_Driver/Src/stm32f4xx_hal_i2s_ex.c ****   hi2s->ErrorCode = HAL_I2S_ERROR_NONE;
 249:Drivers/STM32F4xx_HAL_Driver/Src/stm32f4xx_hal_i2s_ex.c ****   hi2s->State = HAL_I2S_STATE_BUSY_TX_RX;
 250:Drivers/STM32F4xx_HAL_Driver/Src/stm32f4xx_hal_i2s_ex.c **** 
 251:Drivers/STM32F4xx_HAL_Driver/Src/stm32f4xx_hal_i2s_ex.c ****   tmp1 = hi2s->Instance->I2SCFGR & SPI_I2SCFGR_I2SCFG;
 252:Drivers/STM32F4xx_HAL_Driver/Src/stm32f4xx_hal_i2s_ex.c ****   /* Check if the I2S_MODE_MASTER_TX or I2S_MODE_SLAVE_TX Mode is selected */
 253:Drivers/STM32F4xx_HAL_Driver/Src/stm32f4xx_hal_i2s_ex.c ****   if ((tmp1 == I2S_MODE_MASTER_TX) || (tmp1 == I2S_MODE_SLAVE_TX))
 254:Drivers/STM32F4xx_HAL_Driver/Src/stm32f4xx_hal_i2s_ex.c ****   {
 255:Drivers/STM32F4xx_HAL_Driver/Src/stm32f4xx_hal_i2s_ex.c ****     /* Prepare the First Data before enabling the I2S */
 256:Drivers/STM32F4xx_HAL_Driver/Src/stm32f4xx_hal_i2s_ex.c ****     hi2s->Instance->DR = (*pTxData++);
 257:Drivers/STM32F4xx_HAL_Driver/Src/stm32f4xx_hal_i2s_ex.c ****     hi2s->TxXferCount--;
 258:Drivers/STM32F4xx_HAL_Driver/Src/stm32f4xx_hal_i2s_ex.c **** 
ARM GAS  C:\Users\ridel\AppData\Local\Temp\ccOCejYh.s 			page 6


 259:Drivers/STM32F4xx_HAL_Driver/Src/stm32f4xx_hal_i2s_ex.c ****     /* Enable I2Sext(receiver) before enabling I2Sx peripheral */
 260:Drivers/STM32F4xx_HAL_Driver/Src/stm32f4xx_hal_i2s_ex.c ****     __HAL_I2SEXT_ENABLE(hi2s);
 261:Drivers/STM32F4xx_HAL_Driver/Src/stm32f4xx_hal_i2s_ex.c **** 
 262:Drivers/STM32F4xx_HAL_Driver/Src/stm32f4xx_hal_i2s_ex.c ****     /* Enable I2Sx peripheral */
 263:Drivers/STM32F4xx_HAL_Driver/Src/stm32f4xx_hal_i2s_ex.c ****     __HAL_I2S_ENABLE(hi2s);
 264:Drivers/STM32F4xx_HAL_Driver/Src/stm32f4xx_hal_i2s_ex.c **** 
 265:Drivers/STM32F4xx_HAL_Driver/Src/stm32f4xx_hal_i2s_ex.c ****     /* Check if Master Receiver mode is selected */
 266:Drivers/STM32F4xx_HAL_Driver/Src/stm32f4xx_hal_i2s_ex.c ****     if ((hi2s->Instance->I2SCFGR & SPI_I2SCFGR_I2SCFG) == I2S_MODE_MASTER_TX)
 267:Drivers/STM32F4xx_HAL_Driver/Src/stm32f4xx_hal_i2s_ex.c ****     {
 268:Drivers/STM32F4xx_HAL_Driver/Src/stm32f4xx_hal_i2s_ex.c ****       /* Clear the Overrun Flag by a read operation on the SPI_DR register followed by a read
 269:Drivers/STM32F4xx_HAL_Driver/Src/stm32f4xx_hal_i2s_ex.c ****       access to the SPI_SR register. */
 270:Drivers/STM32F4xx_HAL_Driver/Src/stm32f4xx_hal_i2s_ex.c ****       __HAL_I2SEXT_CLEAR_OVRFLAG(hi2s);
 271:Drivers/STM32F4xx_HAL_Driver/Src/stm32f4xx_hal_i2s_ex.c ****     }
 272:Drivers/STM32F4xx_HAL_Driver/Src/stm32f4xx_hal_i2s_ex.c **** 
 273:Drivers/STM32F4xx_HAL_Driver/Src/stm32f4xx_hal_i2s_ex.c ****     while ((hi2s->RxXferCount > 0U) || (hi2s->TxXferCount > 0U))
 274:Drivers/STM32F4xx_HAL_Driver/Src/stm32f4xx_hal_i2s_ex.c ****     {
 275:Drivers/STM32F4xx_HAL_Driver/Src/stm32f4xx_hal_i2s_ex.c ****       if (hi2s->TxXferCount > 0U)
 276:Drivers/STM32F4xx_HAL_Driver/Src/stm32f4xx_hal_i2s_ex.c ****       {
 277:Drivers/STM32F4xx_HAL_Driver/Src/stm32f4xx_hal_i2s_ex.c ****         /* Wait until TXE flag is set */
 278:Drivers/STM32F4xx_HAL_Driver/Src/stm32f4xx_hal_i2s_ex.c ****         if (I2SEx_FullDuplexWaitFlagStateUntilTimeout(hi2s, I2S_FLAG_TXE, SET, Timeout, I2S_USE_I2S
 279:Drivers/STM32F4xx_HAL_Driver/Src/stm32f4xx_hal_i2s_ex.c ****         {
 280:Drivers/STM32F4xx_HAL_Driver/Src/stm32f4xx_hal_i2s_ex.c ****           /* Set the error code */
 281:Drivers/STM32F4xx_HAL_Driver/Src/stm32f4xx_hal_i2s_ex.c ****           SET_BIT(hi2s->ErrorCode, HAL_I2S_ERROR_TIMEOUT);
 282:Drivers/STM32F4xx_HAL_Driver/Src/stm32f4xx_hal_i2s_ex.c ****           hi2s->State = HAL_I2S_STATE_READY;
 283:Drivers/STM32F4xx_HAL_Driver/Src/stm32f4xx_hal_i2s_ex.c **** 
 284:Drivers/STM32F4xx_HAL_Driver/Src/stm32f4xx_hal_i2s_ex.c ****           /* Process UnLock */
 285:Drivers/STM32F4xx_HAL_Driver/Src/stm32f4xx_hal_i2s_ex.c ****           __HAL_UNLOCK(hi2s);
 286:Drivers/STM32F4xx_HAL_Driver/Src/stm32f4xx_hal_i2s_ex.c ****           return HAL_ERROR;
 287:Drivers/STM32F4xx_HAL_Driver/Src/stm32f4xx_hal_i2s_ex.c ****         }
 288:Drivers/STM32F4xx_HAL_Driver/Src/stm32f4xx_hal_i2s_ex.c ****         /* Write Data on DR register */
 289:Drivers/STM32F4xx_HAL_Driver/Src/stm32f4xx_hal_i2s_ex.c ****         hi2s->Instance->DR = (*pTxData++);
 290:Drivers/STM32F4xx_HAL_Driver/Src/stm32f4xx_hal_i2s_ex.c ****         hi2s->TxXferCount--;
 291:Drivers/STM32F4xx_HAL_Driver/Src/stm32f4xx_hal_i2s_ex.c **** 
 292:Drivers/STM32F4xx_HAL_Driver/Src/stm32f4xx_hal_i2s_ex.c ****         /* Check if an underrun occurs */
 293:Drivers/STM32F4xx_HAL_Driver/Src/stm32f4xx_hal_i2s_ex.c ****         if ((__HAL_I2S_GET_FLAG(hi2s, I2S_FLAG_UDR) == SET) && (tmp1 == I2S_MODE_SLAVE_TX))
 294:Drivers/STM32F4xx_HAL_Driver/Src/stm32f4xx_hal_i2s_ex.c ****         {
 295:Drivers/STM32F4xx_HAL_Driver/Src/stm32f4xx_hal_i2s_ex.c ****           /* Clear Underrun flag */
 296:Drivers/STM32F4xx_HAL_Driver/Src/stm32f4xx_hal_i2s_ex.c ****           __HAL_I2S_CLEAR_UDRFLAG(hi2s);
 297:Drivers/STM32F4xx_HAL_Driver/Src/stm32f4xx_hal_i2s_ex.c **** 
 298:Drivers/STM32F4xx_HAL_Driver/Src/stm32f4xx_hal_i2s_ex.c ****           /* Set the error code */
 299:Drivers/STM32F4xx_HAL_Driver/Src/stm32f4xx_hal_i2s_ex.c ****           SET_BIT(hi2s->ErrorCode, HAL_I2S_ERROR_UDR);
 300:Drivers/STM32F4xx_HAL_Driver/Src/stm32f4xx_hal_i2s_ex.c ****         }
 301:Drivers/STM32F4xx_HAL_Driver/Src/stm32f4xx_hal_i2s_ex.c ****       }
 302:Drivers/STM32F4xx_HAL_Driver/Src/stm32f4xx_hal_i2s_ex.c ****       if (hi2s->RxXferCount > 0U)
 303:Drivers/STM32F4xx_HAL_Driver/Src/stm32f4xx_hal_i2s_ex.c ****       {
 304:Drivers/STM32F4xx_HAL_Driver/Src/stm32f4xx_hal_i2s_ex.c ****         /* Wait until RXNE flag is set */
 305:Drivers/STM32F4xx_HAL_Driver/Src/stm32f4xx_hal_i2s_ex.c ****         if (I2SEx_FullDuplexWaitFlagStateUntilTimeout(hi2s, I2S_FLAG_RXNE, SET, Timeout, I2S_USE_I2
 306:Drivers/STM32F4xx_HAL_Driver/Src/stm32f4xx_hal_i2s_ex.c ****         {
 307:Drivers/STM32F4xx_HAL_Driver/Src/stm32f4xx_hal_i2s_ex.c ****           /* Set the error code */
 308:Drivers/STM32F4xx_HAL_Driver/Src/stm32f4xx_hal_i2s_ex.c ****           SET_BIT(hi2s->ErrorCode, HAL_I2S_ERROR_TIMEOUT);
 309:Drivers/STM32F4xx_HAL_Driver/Src/stm32f4xx_hal_i2s_ex.c ****           hi2s->State = HAL_I2S_STATE_READY;
 310:Drivers/STM32F4xx_HAL_Driver/Src/stm32f4xx_hal_i2s_ex.c **** 
 311:Drivers/STM32F4xx_HAL_Driver/Src/stm32f4xx_hal_i2s_ex.c ****           /* Process UnLock */
 312:Drivers/STM32F4xx_HAL_Driver/Src/stm32f4xx_hal_i2s_ex.c ****           __HAL_UNLOCK(hi2s);
 313:Drivers/STM32F4xx_HAL_Driver/Src/stm32f4xx_hal_i2s_ex.c ****           return HAL_ERROR;
 314:Drivers/STM32F4xx_HAL_Driver/Src/stm32f4xx_hal_i2s_ex.c ****         }
 315:Drivers/STM32F4xx_HAL_Driver/Src/stm32f4xx_hal_i2s_ex.c ****         /* Read Data from DR register */
ARM GAS  C:\Users\ridel\AppData\Local\Temp\ccOCejYh.s 			page 7


 316:Drivers/STM32F4xx_HAL_Driver/Src/stm32f4xx_hal_i2s_ex.c ****         (*pRxData++) = I2SxEXT(hi2s->Instance)->DR;
 317:Drivers/STM32F4xx_HAL_Driver/Src/stm32f4xx_hal_i2s_ex.c ****         hi2s->RxXferCount--;
 318:Drivers/STM32F4xx_HAL_Driver/Src/stm32f4xx_hal_i2s_ex.c **** 
 319:Drivers/STM32F4xx_HAL_Driver/Src/stm32f4xx_hal_i2s_ex.c ****         /* Check if an overrun occurs */
 320:Drivers/STM32F4xx_HAL_Driver/Src/stm32f4xx_hal_i2s_ex.c ****         if (__HAL_I2SEXT_GET_FLAG(hi2s, I2S_FLAG_OVR) == SET)
 321:Drivers/STM32F4xx_HAL_Driver/Src/stm32f4xx_hal_i2s_ex.c ****         {
 322:Drivers/STM32F4xx_HAL_Driver/Src/stm32f4xx_hal_i2s_ex.c ****           /* Clear Overrun flag */
 323:Drivers/STM32F4xx_HAL_Driver/Src/stm32f4xx_hal_i2s_ex.c ****           __HAL_I2S_CLEAR_OVRFLAG(hi2s);
 324:Drivers/STM32F4xx_HAL_Driver/Src/stm32f4xx_hal_i2s_ex.c **** 
 325:Drivers/STM32F4xx_HAL_Driver/Src/stm32f4xx_hal_i2s_ex.c ****           /* Set the error code */
 326:Drivers/STM32F4xx_HAL_Driver/Src/stm32f4xx_hal_i2s_ex.c ****           SET_BIT(hi2s->ErrorCode, HAL_I2S_ERROR_OVR);
 327:Drivers/STM32F4xx_HAL_Driver/Src/stm32f4xx_hal_i2s_ex.c ****         }
 328:Drivers/STM32F4xx_HAL_Driver/Src/stm32f4xx_hal_i2s_ex.c ****       }
 329:Drivers/STM32F4xx_HAL_Driver/Src/stm32f4xx_hal_i2s_ex.c ****     }
 330:Drivers/STM32F4xx_HAL_Driver/Src/stm32f4xx_hal_i2s_ex.c ****   }
 331:Drivers/STM32F4xx_HAL_Driver/Src/stm32f4xx_hal_i2s_ex.c ****   /* The I2S_MODE_MASTER_RX or I2S_MODE_SLAVE_RX Mode is selected */
 332:Drivers/STM32F4xx_HAL_Driver/Src/stm32f4xx_hal_i2s_ex.c ****   else
 333:Drivers/STM32F4xx_HAL_Driver/Src/stm32f4xx_hal_i2s_ex.c ****   {
 334:Drivers/STM32F4xx_HAL_Driver/Src/stm32f4xx_hal_i2s_ex.c ****     /* Prepare the First Data before enabling the I2S */
 335:Drivers/STM32F4xx_HAL_Driver/Src/stm32f4xx_hal_i2s_ex.c ****     I2SxEXT(hi2s->Instance)->DR = (*pTxData++);
 336:Drivers/STM32F4xx_HAL_Driver/Src/stm32f4xx_hal_i2s_ex.c ****     hi2s->TxXferCount--;
 337:Drivers/STM32F4xx_HAL_Driver/Src/stm32f4xx_hal_i2s_ex.c **** 
 338:Drivers/STM32F4xx_HAL_Driver/Src/stm32f4xx_hal_i2s_ex.c ****     /* Enable I2Sext(transmitter) after enabling I2Sx peripheral */
 339:Drivers/STM32F4xx_HAL_Driver/Src/stm32f4xx_hal_i2s_ex.c ****     __HAL_I2SEXT_ENABLE(hi2s);
 340:Drivers/STM32F4xx_HAL_Driver/Src/stm32f4xx_hal_i2s_ex.c **** 
 341:Drivers/STM32F4xx_HAL_Driver/Src/stm32f4xx_hal_i2s_ex.c ****     /* Enable I2S peripheral before the I2Sext*/
 342:Drivers/STM32F4xx_HAL_Driver/Src/stm32f4xx_hal_i2s_ex.c ****     __HAL_I2S_ENABLE(hi2s);
 343:Drivers/STM32F4xx_HAL_Driver/Src/stm32f4xx_hal_i2s_ex.c **** 
 344:Drivers/STM32F4xx_HAL_Driver/Src/stm32f4xx_hal_i2s_ex.c ****     /* Check if Master Receiver mode is selected */
 345:Drivers/STM32F4xx_HAL_Driver/Src/stm32f4xx_hal_i2s_ex.c ****     if ((hi2s->Instance->I2SCFGR & SPI_I2SCFGR_I2SCFG) == I2S_MODE_MASTER_RX)
 346:Drivers/STM32F4xx_HAL_Driver/Src/stm32f4xx_hal_i2s_ex.c ****     {
 347:Drivers/STM32F4xx_HAL_Driver/Src/stm32f4xx_hal_i2s_ex.c ****       /* Clear the Overrun Flag by a read operation on the SPI_DR register followed by a read
 348:Drivers/STM32F4xx_HAL_Driver/Src/stm32f4xx_hal_i2s_ex.c ****       access to the SPI_SR register. */
 349:Drivers/STM32F4xx_HAL_Driver/Src/stm32f4xx_hal_i2s_ex.c ****       __HAL_I2S_CLEAR_OVRFLAG(hi2s);
 350:Drivers/STM32F4xx_HAL_Driver/Src/stm32f4xx_hal_i2s_ex.c ****     }
 351:Drivers/STM32F4xx_HAL_Driver/Src/stm32f4xx_hal_i2s_ex.c **** 
 352:Drivers/STM32F4xx_HAL_Driver/Src/stm32f4xx_hal_i2s_ex.c ****     while ((hi2s->RxXferCount > 0U) || (hi2s->TxXferCount > 0U))
 353:Drivers/STM32F4xx_HAL_Driver/Src/stm32f4xx_hal_i2s_ex.c ****     {
 354:Drivers/STM32F4xx_HAL_Driver/Src/stm32f4xx_hal_i2s_ex.c ****       if (hi2s->TxXferCount > 0U)
 355:Drivers/STM32F4xx_HAL_Driver/Src/stm32f4xx_hal_i2s_ex.c ****       {
 356:Drivers/STM32F4xx_HAL_Driver/Src/stm32f4xx_hal_i2s_ex.c ****         /* Wait until TXE flag is set */
 357:Drivers/STM32F4xx_HAL_Driver/Src/stm32f4xx_hal_i2s_ex.c ****         if (I2SEx_FullDuplexWaitFlagStateUntilTimeout(hi2s, I2S_FLAG_TXE, SET, Timeout, I2S_USE_I2S
 358:Drivers/STM32F4xx_HAL_Driver/Src/stm32f4xx_hal_i2s_ex.c ****         {
 359:Drivers/STM32F4xx_HAL_Driver/Src/stm32f4xx_hal_i2s_ex.c ****           /* Set the error code */
 360:Drivers/STM32F4xx_HAL_Driver/Src/stm32f4xx_hal_i2s_ex.c ****           SET_BIT(hi2s->ErrorCode, HAL_I2S_ERROR_TIMEOUT);
 361:Drivers/STM32F4xx_HAL_Driver/Src/stm32f4xx_hal_i2s_ex.c ****           hi2s->State = HAL_I2S_STATE_READY;
 362:Drivers/STM32F4xx_HAL_Driver/Src/stm32f4xx_hal_i2s_ex.c **** 
 363:Drivers/STM32F4xx_HAL_Driver/Src/stm32f4xx_hal_i2s_ex.c ****           /* Process UnLock */
 364:Drivers/STM32F4xx_HAL_Driver/Src/stm32f4xx_hal_i2s_ex.c ****           __HAL_UNLOCK(hi2s);
 365:Drivers/STM32F4xx_HAL_Driver/Src/stm32f4xx_hal_i2s_ex.c ****           return HAL_ERROR;
 366:Drivers/STM32F4xx_HAL_Driver/Src/stm32f4xx_hal_i2s_ex.c ****         }
 367:Drivers/STM32F4xx_HAL_Driver/Src/stm32f4xx_hal_i2s_ex.c ****         /* Write Data on DR register */
 368:Drivers/STM32F4xx_HAL_Driver/Src/stm32f4xx_hal_i2s_ex.c ****         I2SxEXT(hi2s->Instance)->DR = (*pTxData++);
 369:Drivers/STM32F4xx_HAL_Driver/Src/stm32f4xx_hal_i2s_ex.c ****         hi2s->TxXferCount--;
 370:Drivers/STM32F4xx_HAL_Driver/Src/stm32f4xx_hal_i2s_ex.c **** 
 371:Drivers/STM32F4xx_HAL_Driver/Src/stm32f4xx_hal_i2s_ex.c ****         /* Check if an underrun occurs */
 372:Drivers/STM32F4xx_HAL_Driver/Src/stm32f4xx_hal_i2s_ex.c ****         if ((__HAL_I2SEXT_GET_FLAG(hi2s, I2S_FLAG_UDR) == SET) && (tmp1 == I2S_MODE_SLAVE_RX))
ARM GAS  C:\Users\ridel\AppData\Local\Temp\ccOCejYh.s 			page 8


 373:Drivers/STM32F4xx_HAL_Driver/Src/stm32f4xx_hal_i2s_ex.c ****         {
 374:Drivers/STM32F4xx_HAL_Driver/Src/stm32f4xx_hal_i2s_ex.c ****           /* Clear Underrun flag */
 375:Drivers/STM32F4xx_HAL_Driver/Src/stm32f4xx_hal_i2s_ex.c ****           __HAL_I2S_CLEAR_UDRFLAG(hi2s);
 376:Drivers/STM32F4xx_HAL_Driver/Src/stm32f4xx_hal_i2s_ex.c **** 
 377:Drivers/STM32F4xx_HAL_Driver/Src/stm32f4xx_hal_i2s_ex.c ****           /* Set the error code */
 378:Drivers/STM32F4xx_HAL_Driver/Src/stm32f4xx_hal_i2s_ex.c ****           SET_BIT(hi2s->ErrorCode, HAL_I2S_ERROR_UDR);
 379:Drivers/STM32F4xx_HAL_Driver/Src/stm32f4xx_hal_i2s_ex.c ****         }
 380:Drivers/STM32F4xx_HAL_Driver/Src/stm32f4xx_hal_i2s_ex.c ****       }
 381:Drivers/STM32F4xx_HAL_Driver/Src/stm32f4xx_hal_i2s_ex.c ****       if (hi2s->RxXferCount > 0U)
 382:Drivers/STM32F4xx_HAL_Driver/Src/stm32f4xx_hal_i2s_ex.c ****       {
 383:Drivers/STM32F4xx_HAL_Driver/Src/stm32f4xx_hal_i2s_ex.c ****         /* Wait until RXNE flag is set */
 384:Drivers/STM32F4xx_HAL_Driver/Src/stm32f4xx_hal_i2s_ex.c ****         if (I2SEx_FullDuplexWaitFlagStateUntilTimeout(hi2s, I2S_FLAG_RXNE, SET, Timeout, I2S_USE_I2
 385:Drivers/STM32F4xx_HAL_Driver/Src/stm32f4xx_hal_i2s_ex.c ****         {
 386:Drivers/STM32F4xx_HAL_Driver/Src/stm32f4xx_hal_i2s_ex.c ****           /* Set the error code */
 387:Drivers/STM32F4xx_HAL_Driver/Src/stm32f4xx_hal_i2s_ex.c ****           SET_BIT(hi2s->ErrorCode, HAL_I2S_ERROR_TIMEOUT);
 388:Drivers/STM32F4xx_HAL_Driver/Src/stm32f4xx_hal_i2s_ex.c ****           hi2s->State = HAL_I2S_STATE_READY;
 389:Drivers/STM32F4xx_HAL_Driver/Src/stm32f4xx_hal_i2s_ex.c **** 
 390:Drivers/STM32F4xx_HAL_Driver/Src/stm32f4xx_hal_i2s_ex.c ****           /* Process UnLock */
 391:Drivers/STM32F4xx_HAL_Driver/Src/stm32f4xx_hal_i2s_ex.c ****           __HAL_UNLOCK(hi2s);
 392:Drivers/STM32F4xx_HAL_Driver/Src/stm32f4xx_hal_i2s_ex.c ****           return HAL_ERROR;
 393:Drivers/STM32F4xx_HAL_Driver/Src/stm32f4xx_hal_i2s_ex.c ****         }
 394:Drivers/STM32F4xx_HAL_Driver/Src/stm32f4xx_hal_i2s_ex.c ****         /* Read Data from DR register */
 395:Drivers/STM32F4xx_HAL_Driver/Src/stm32f4xx_hal_i2s_ex.c ****         (*pRxData++) = hi2s->Instance->DR;
 396:Drivers/STM32F4xx_HAL_Driver/Src/stm32f4xx_hal_i2s_ex.c ****         hi2s->RxXferCount--;
 397:Drivers/STM32F4xx_HAL_Driver/Src/stm32f4xx_hal_i2s_ex.c **** 
 398:Drivers/STM32F4xx_HAL_Driver/Src/stm32f4xx_hal_i2s_ex.c ****         /* Check if an overrun occurs */
 399:Drivers/STM32F4xx_HAL_Driver/Src/stm32f4xx_hal_i2s_ex.c ****         if (__HAL_I2S_GET_FLAG(hi2s, I2S_FLAG_OVR) == SET)
 400:Drivers/STM32F4xx_HAL_Driver/Src/stm32f4xx_hal_i2s_ex.c ****         {
 401:Drivers/STM32F4xx_HAL_Driver/Src/stm32f4xx_hal_i2s_ex.c ****           /* Clear Overrun flag */
 402:Drivers/STM32F4xx_HAL_Driver/Src/stm32f4xx_hal_i2s_ex.c ****           __HAL_I2S_CLEAR_OVRFLAG(hi2s);
 403:Drivers/STM32F4xx_HAL_Driver/Src/stm32f4xx_hal_i2s_ex.c **** 
 404:Drivers/STM32F4xx_HAL_Driver/Src/stm32f4xx_hal_i2s_ex.c ****           /* Set the error code */
 405:Drivers/STM32F4xx_HAL_Driver/Src/stm32f4xx_hal_i2s_ex.c ****           SET_BIT(hi2s->ErrorCode, HAL_I2S_ERROR_OVR);
 406:Drivers/STM32F4xx_HAL_Driver/Src/stm32f4xx_hal_i2s_ex.c ****         }
 407:Drivers/STM32F4xx_HAL_Driver/Src/stm32f4xx_hal_i2s_ex.c ****       }
 408:Drivers/STM32F4xx_HAL_Driver/Src/stm32f4xx_hal_i2s_ex.c ****     }
 409:Drivers/STM32F4xx_HAL_Driver/Src/stm32f4xx_hal_i2s_ex.c ****   }
 410:Drivers/STM32F4xx_HAL_Driver/Src/stm32f4xx_hal_i2s_ex.c **** 
 411:Drivers/STM32F4xx_HAL_Driver/Src/stm32f4xx_hal_i2s_ex.c ****   hi2s->State = HAL_I2S_STATE_READY;
 412:Drivers/STM32F4xx_HAL_Driver/Src/stm32f4xx_hal_i2s_ex.c ****   __HAL_UNLOCK(hi2s);
 413:Drivers/STM32F4xx_HAL_Driver/Src/stm32f4xx_hal_i2s_ex.c **** 
 414:Drivers/STM32F4xx_HAL_Driver/Src/stm32f4xx_hal_i2s_ex.c ****   if (hi2s->ErrorCode != HAL_I2S_ERROR_NONE)
 415:Drivers/STM32F4xx_HAL_Driver/Src/stm32f4xx_hal_i2s_ex.c ****   {
 416:Drivers/STM32F4xx_HAL_Driver/Src/stm32f4xx_hal_i2s_ex.c ****     return HAL_ERROR;
 417:Drivers/STM32F4xx_HAL_Driver/Src/stm32f4xx_hal_i2s_ex.c ****   }
 418:Drivers/STM32F4xx_HAL_Driver/Src/stm32f4xx_hal_i2s_ex.c ****   else
 419:Drivers/STM32F4xx_HAL_Driver/Src/stm32f4xx_hal_i2s_ex.c ****   {
 420:Drivers/STM32F4xx_HAL_Driver/Src/stm32f4xx_hal_i2s_ex.c ****     return HAL_OK;
 421:Drivers/STM32F4xx_HAL_Driver/Src/stm32f4xx_hal_i2s_ex.c ****   }
 422:Drivers/STM32F4xx_HAL_Driver/Src/stm32f4xx_hal_i2s_ex.c **** }
 423:Drivers/STM32F4xx_HAL_Driver/Src/stm32f4xx_hal_i2s_ex.c **** 
 424:Drivers/STM32F4xx_HAL_Driver/Src/stm32f4xx_hal_i2s_ex.c **** /**
 425:Drivers/STM32F4xx_HAL_Driver/Src/stm32f4xx_hal_i2s_ex.c ****   * @brief  Full-Duplex Transmit/Receive data in non-blocking mode using Interrupt
 426:Drivers/STM32F4xx_HAL_Driver/Src/stm32f4xx_hal_i2s_ex.c ****   * @param  hi2s pointer to a I2S_HandleTypeDef structure that contains
 427:Drivers/STM32F4xx_HAL_Driver/Src/stm32f4xx_hal_i2s_ex.c ****   *         the configuration information for I2S module
 428:Drivers/STM32F4xx_HAL_Driver/Src/stm32f4xx_hal_i2s_ex.c ****   * @param  pTxData a 16-bit pointer to the Transmit data buffer.
 429:Drivers/STM32F4xx_HAL_Driver/Src/stm32f4xx_hal_i2s_ex.c ****   * @param  pRxData a 16-bit pointer to the Receive data buffer.
ARM GAS  C:\Users\ridel\AppData\Local\Temp\ccOCejYh.s 			page 9


 430:Drivers/STM32F4xx_HAL_Driver/Src/stm32f4xx_hal_i2s_ex.c ****   * @param  Size number of data sample to be sent:
 431:Drivers/STM32F4xx_HAL_Driver/Src/stm32f4xx_hal_i2s_ex.c ****   * @note   When a 16-bit data frame or a 16-bit data frame extended is selected during the I2S
 432:Drivers/STM32F4xx_HAL_Driver/Src/stm32f4xx_hal_i2s_ex.c ****   *         configuration phase, the Size parameter means the number of 16-bit data length
 433:Drivers/STM32F4xx_HAL_Driver/Src/stm32f4xx_hal_i2s_ex.c ****   *         in the transaction and when a 24-bit data frame or a 32-bit data frame is selected
 434:Drivers/STM32F4xx_HAL_Driver/Src/stm32f4xx_hal_i2s_ex.c ****   *         the Size parameter means the number of 16-bit data length.
 435:Drivers/STM32F4xx_HAL_Driver/Src/stm32f4xx_hal_i2s_ex.c ****   * @note   The I2S is kept enabled at the end of transaction to avoid the clock de-synchronization
 436:Drivers/STM32F4xx_HAL_Driver/Src/stm32f4xx_hal_i2s_ex.c ****   *         between Master and Slave(example: audio streaming).
 437:Drivers/STM32F4xx_HAL_Driver/Src/stm32f4xx_hal_i2s_ex.c ****   * @retval HAL status
 438:Drivers/STM32F4xx_HAL_Driver/Src/stm32f4xx_hal_i2s_ex.c ****   */
 439:Drivers/STM32F4xx_HAL_Driver/Src/stm32f4xx_hal_i2s_ex.c **** HAL_StatusTypeDef HAL_I2SEx_TransmitReceive_IT(I2S_HandleTypeDef *hi2s,
 440:Drivers/STM32F4xx_HAL_Driver/Src/stm32f4xx_hal_i2s_ex.c ****                                                uint16_t *pTxData,
 441:Drivers/STM32F4xx_HAL_Driver/Src/stm32f4xx_hal_i2s_ex.c ****                                                uint16_t *pRxData,
 442:Drivers/STM32F4xx_HAL_Driver/Src/stm32f4xx_hal_i2s_ex.c ****                                                uint16_t Size)
 443:Drivers/STM32F4xx_HAL_Driver/Src/stm32f4xx_hal_i2s_ex.c **** {
 444:Drivers/STM32F4xx_HAL_Driver/Src/stm32f4xx_hal_i2s_ex.c ****   uint32_t tmp1 = 0U;
 445:Drivers/STM32F4xx_HAL_Driver/Src/stm32f4xx_hal_i2s_ex.c **** 
 446:Drivers/STM32F4xx_HAL_Driver/Src/stm32f4xx_hal_i2s_ex.c ****   if (hi2s->State != HAL_I2S_STATE_READY)
 447:Drivers/STM32F4xx_HAL_Driver/Src/stm32f4xx_hal_i2s_ex.c ****   {
 448:Drivers/STM32F4xx_HAL_Driver/Src/stm32f4xx_hal_i2s_ex.c ****     return HAL_BUSY;
 449:Drivers/STM32F4xx_HAL_Driver/Src/stm32f4xx_hal_i2s_ex.c ****   }
 450:Drivers/STM32F4xx_HAL_Driver/Src/stm32f4xx_hal_i2s_ex.c **** 
 451:Drivers/STM32F4xx_HAL_Driver/Src/stm32f4xx_hal_i2s_ex.c ****   if ((pTxData == NULL) || (pRxData == NULL) || (Size == 0U))
 452:Drivers/STM32F4xx_HAL_Driver/Src/stm32f4xx_hal_i2s_ex.c ****   {
 453:Drivers/STM32F4xx_HAL_Driver/Src/stm32f4xx_hal_i2s_ex.c ****     return  HAL_ERROR;
 454:Drivers/STM32F4xx_HAL_Driver/Src/stm32f4xx_hal_i2s_ex.c ****   }
 455:Drivers/STM32F4xx_HAL_Driver/Src/stm32f4xx_hal_i2s_ex.c **** 
 456:Drivers/STM32F4xx_HAL_Driver/Src/stm32f4xx_hal_i2s_ex.c ****   /* Process Locked */
 457:Drivers/STM32F4xx_HAL_Driver/Src/stm32f4xx_hal_i2s_ex.c ****   __HAL_LOCK(hi2s);
 458:Drivers/STM32F4xx_HAL_Driver/Src/stm32f4xx_hal_i2s_ex.c **** 
 459:Drivers/STM32F4xx_HAL_Driver/Src/stm32f4xx_hal_i2s_ex.c ****   hi2s->pTxBuffPtr = pTxData;
 460:Drivers/STM32F4xx_HAL_Driver/Src/stm32f4xx_hal_i2s_ex.c ****   hi2s->pRxBuffPtr = pRxData;
 461:Drivers/STM32F4xx_HAL_Driver/Src/stm32f4xx_hal_i2s_ex.c **** 
 462:Drivers/STM32F4xx_HAL_Driver/Src/stm32f4xx_hal_i2s_ex.c ****   tmp1 = hi2s->Instance->I2SCFGR & (SPI_I2SCFGR_DATLEN | SPI_I2SCFGR_CHLEN);
 463:Drivers/STM32F4xx_HAL_Driver/Src/stm32f4xx_hal_i2s_ex.c ****   /* Check the Data format: When a 16-bit data frame or a 16-bit data frame extended
 464:Drivers/STM32F4xx_HAL_Driver/Src/stm32f4xx_hal_i2s_ex.c ****   is selected during the I2S configuration phase, the Size parameter means the number
 465:Drivers/STM32F4xx_HAL_Driver/Src/stm32f4xx_hal_i2s_ex.c ****   of 16-bit data length in the transaction and when a 24-bit data frame or a 32-bit data
 466:Drivers/STM32F4xx_HAL_Driver/Src/stm32f4xx_hal_i2s_ex.c ****   frame is selected the Size parameter means the number of 16-bit data length. */
 467:Drivers/STM32F4xx_HAL_Driver/Src/stm32f4xx_hal_i2s_ex.c ****   if ((tmp1 == I2S_DATAFORMAT_24B) || (tmp1 == I2S_DATAFORMAT_32B))
 468:Drivers/STM32F4xx_HAL_Driver/Src/stm32f4xx_hal_i2s_ex.c ****   {
 469:Drivers/STM32F4xx_HAL_Driver/Src/stm32f4xx_hal_i2s_ex.c ****     hi2s->TxXferSize  = (Size << 1U);
 470:Drivers/STM32F4xx_HAL_Driver/Src/stm32f4xx_hal_i2s_ex.c ****     hi2s->TxXferCount = (Size << 1U);
 471:Drivers/STM32F4xx_HAL_Driver/Src/stm32f4xx_hal_i2s_ex.c ****     hi2s->RxXferSize  = (Size << 1U);
 472:Drivers/STM32F4xx_HAL_Driver/Src/stm32f4xx_hal_i2s_ex.c ****     hi2s->RxXferCount = (Size << 1U);
 473:Drivers/STM32F4xx_HAL_Driver/Src/stm32f4xx_hal_i2s_ex.c ****   }
 474:Drivers/STM32F4xx_HAL_Driver/Src/stm32f4xx_hal_i2s_ex.c ****   else
 475:Drivers/STM32F4xx_HAL_Driver/Src/stm32f4xx_hal_i2s_ex.c ****   {
 476:Drivers/STM32F4xx_HAL_Driver/Src/stm32f4xx_hal_i2s_ex.c ****     hi2s->TxXferSize  = Size;
 477:Drivers/STM32F4xx_HAL_Driver/Src/stm32f4xx_hal_i2s_ex.c ****     hi2s->TxXferCount = Size;
 478:Drivers/STM32F4xx_HAL_Driver/Src/stm32f4xx_hal_i2s_ex.c ****     hi2s->RxXferSize  = Size;
 479:Drivers/STM32F4xx_HAL_Driver/Src/stm32f4xx_hal_i2s_ex.c ****     hi2s->RxXferCount = Size;
 480:Drivers/STM32F4xx_HAL_Driver/Src/stm32f4xx_hal_i2s_ex.c ****   }
 481:Drivers/STM32F4xx_HAL_Driver/Src/stm32f4xx_hal_i2s_ex.c **** 
 482:Drivers/STM32F4xx_HAL_Driver/Src/stm32f4xx_hal_i2s_ex.c ****   hi2s->ErrorCode = HAL_I2S_ERROR_NONE;
 483:Drivers/STM32F4xx_HAL_Driver/Src/stm32f4xx_hal_i2s_ex.c ****   hi2s->State     = HAL_I2S_STATE_BUSY_TX_RX;
 484:Drivers/STM32F4xx_HAL_Driver/Src/stm32f4xx_hal_i2s_ex.c **** 
 485:Drivers/STM32F4xx_HAL_Driver/Src/stm32f4xx_hal_i2s_ex.c ****   /* Set the function for IT treatment */
 486:Drivers/STM32F4xx_HAL_Driver/Src/stm32f4xx_hal_i2s_ex.c ****   if ((hi2s->Init.Mode == I2S_MODE_MASTER_TX) || (hi2s->Init.Mode == I2S_MODE_SLAVE_TX))
ARM GAS  C:\Users\ridel\AppData\Local\Temp\ccOCejYh.s 			page 10


 487:Drivers/STM32F4xx_HAL_Driver/Src/stm32f4xx_hal_i2s_ex.c ****   {
 488:Drivers/STM32F4xx_HAL_Driver/Src/stm32f4xx_hal_i2s_ex.c ****     /* Enable I2Sext RXNE and ERR interrupts */
 489:Drivers/STM32F4xx_HAL_Driver/Src/stm32f4xx_hal_i2s_ex.c ****     __HAL_I2SEXT_ENABLE_IT(hi2s, (I2S_IT_RXNE | I2S_IT_ERR));
 490:Drivers/STM32F4xx_HAL_Driver/Src/stm32f4xx_hal_i2s_ex.c **** 
 491:Drivers/STM32F4xx_HAL_Driver/Src/stm32f4xx_hal_i2s_ex.c ****     /* Enable I2Sx TXE and ERR interrupts */
 492:Drivers/STM32F4xx_HAL_Driver/Src/stm32f4xx_hal_i2s_ex.c ****     __HAL_I2S_ENABLE_IT(hi2s, (I2S_IT_TXE | I2S_IT_ERR));
 493:Drivers/STM32F4xx_HAL_Driver/Src/stm32f4xx_hal_i2s_ex.c **** 
 494:Drivers/STM32F4xx_HAL_Driver/Src/stm32f4xx_hal_i2s_ex.c ****     /* Transmit First data */
 495:Drivers/STM32F4xx_HAL_Driver/Src/stm32f4xx_hal_i2s_ex.c ****     hi2s->Instance->DR = (*hi2s->pTxBuffPtr++);
 496:Drivers/STM32F4xx_HAL_Driver/Src/stm32f4xx_hal_i2s_ex.c ****     hi2s->TxXferCount--;
 497:Drivers/STM32F4xx_HAL_Driver/Src/stm32f4xx_hal_i2s_ex.c **** 
 498:Drivers/STM32F4xx_HAL_Driver/Src/stm32f4xx_hal_i2s_ex.c ****     if (hi2s->TxXferCount == 0U)
 499:Drivers/STM32F4xx_HAL_Driver/Src/stm32f4xx_hal_i2s_ex.c ****     {
 500:Drivers/STM32F4xx_HAL_Driver/Src/stm32f4xx_hal_i2s_ex.c ****       /* Disable TXE and ERR interrupt */
 501:Drivers/STM32F4xx_HAL_Driver/Src/stm32f4xx_hal_i2s_ex.c ****       __HAL_I2S_DISABLE_IT(hi2s, (I2S_IT_TXE | I2S_IT_ERR));
 502:Drivers/STM32F4xx_HAL_Driver/Src/stm32f4xx_hal_i2s_ex.c ****     }
 503:Drivers/STM32F4xx_HAL_Driver/Src/stm32f4xx_hal_i2s_ex.c ****   }
 504:Drivers/STM32F4xx_HAL_Driver/Src/stm32f4xx_hal_i2s_ex.c ****   else  /* The I2S_MODE_MASTER_RX or I2S_MODE_SLAVE_RX Mode is selected */
 505:Drivers/STM32F4xx_HAL_Driver/Src/stm32f4xx_hal_i2s_ex.c ****   {
 506:Drivers/STM32F4xx_HAL_Driver/Src/stm32f4xx_hal_i2s_ex.c ****     /* Enable I2Sext TXE and ERR interrupts */
 507:Drivers/STM32F4xx_HAL_Driver/Src/stm32f4xx_hal_i2s_ex.c ****     __HAL_I2SEXT_ENABLE_IT(hi2s, (I2S_IT_TXE | I2S_IT_ERR));
 508:Drivers/STM32F4xx_HAL_Driver/Src/stm32f4xx_hal_i2s_ex.c **** 
 509:Drivers/STM32F4xx_HAL_Driver/Src/stm32f4xx_hal_i2s_ex.c ****     /* Enable I2Sext RXNE and ERR interrupts */
 510:Drivers/STM32F4xx_HAL_Driver/Src/stm32f4xx_hal_i2s_ex.c ****     __HAL_I2S_ENABLE_IT(hi2s, (I2S_IT_RXNE | I2S_IT_ERR));
 511:Drivers/STM32F4xx_HAL_Driver/Src/stm32f4xx_hal_i2s_ex.c **** 
 512:Drivers/STM32F4xx_HAL_Driver/Src/stm32f4xx_hal_i2s_ex.c ****     /* Transmit First data */
 513:Drivers/STM32F4xx_HAL_Driver/Src/stm32f4xx_hal_i2s_ex.c ****     I2SxEXT(hi2s->Instance)->DR = (*hi2s->pTxBuffPtr++);
 514:Drivers/STM32F4xx_HAL_Driver/Src/stm32f4xx_hal_i2s_ex.c ****     hi2s->TxXferCount--;
 515:Drivers/STM32F4xx_HAL_Driver/Src/stm32f4xx_hal_i2s_ex.c **** 
 516:Drivers/STM32F4xx_HAL_Driver/Src/stm32f4xx_hal_i2s_ex.c ****     if (hi2s->TxXferCount == 0U)
 517:Drivers/STM32F4xx_HAL_Driver/Src/stm32f4xx_hal_i2s_ex.c ****     {
 518:Drivers/STM32F4xx_HAL_Driver/Src/stm32f4xx_hal_i2s_ex.c ****       /* Disable I2Sext TXE and ERR interrupt */
 519:Drivers/STM32F4xx_HAL_Driver/Src/stm32f4xx_hal_i2s_ex.c ****       __HAL_I2SEXT_DISABLE_IT(hi2s, (I2S_IT_TXE | I2S_IT_ERR));
 520:Drivers/STM32F4xx_HAL_Driver/Src/stm32f4xx_hal_i2s_ex.c ****     }
 521:Drivers/STM32F4xx_HAL_Driver/Src/stm32f4xx_hal_i2s_ex.c ****   }
 522:Drivers/STM32F4xx_HAL_Driver/Src/stm32f4xx_hal_i2s_ex.c **** 
 523:Drivers/STM32F4xx_HAL_Driver/Src/stm32f4xx_hal_i2s_ex.c ****   __HAL_UNLOCK(hi2s);
 524:Drivers/STM32F4xx_HAL_Driver/Src/stm32f4xx_hal_i2s_ex.c ****   /* Enable I2Sext peripheral */
 525:Drivers/STM32F4xx_HAL_Driver/Src/stm32f4xx_hal_i2s_ex.c ****   __HAL_I2SEXT_ENABLE(hi2s);
 526:Drivers/STM32F4xx_HAL_Driver/Src/stm32f4xx_hal_i2s_ex.c **** 
 527:Drivers/STM32F4xx_HAL_Driver/Src/stm32f4xx_hal_i2s_ex.c ****   /* Enable I2S peripheral */
 528:Drivers/STM32F4xx_HAL_Driver/Src/stm32f4xx_hal_i2s_ex.c ****   __HAL_I2S_ENABLE(hi2s);
 529:Drivers/STM32F4xx_HAL_Driver/Src/stm32f4xx_hal_i2s_ex.c **** 
 530:Drivers/STM32F4xx_HAL_Driver/Src/stm32f4xx_hal_i2s_ex.c ****   return HAL_OK;
 531:Drivers/STM32F4xx_HAL_Driver/Src/stm32f4xx_hal_i2s_ex.c **** }
 532:Drivers/STM32F4xx_HAL_Driver/Src/stm32f4xx_hal_i2s_ex.c **** 
 533:Drivers/STM32F4xx_HAL_Driver/Src/stm32f4xx_hal_i2s_ex.c **** /**
 534:Drivers/STM32F4xx_HAL_Driver/Src/stm32f4xx_hal_i2s_ex.c ****   * @brief  Full-Duplex Transmit/Receive data in non-blocking mode using DMA
 535:Drivers/STM32F4xx_HAL_Driver/Src/stm32f4xx_hal_i2s_ex.c ****   * @param  hi2s pointer to a I2S_HandleTypeDef structure that contains
 536:Drivers/STM32F4xx_HAL_Driver/Src/stm32f4xx_hal_i2s_ex.c ****   *         the configuration information for I2S module
 537:Drivers/STM32F4xx_HAL_Driver/Src/stm32f4xx_hal_i2s_ex.c ****   * @param  pTxData a 16-bit pointer to the Transmit data buffer.
 538:Drivers/STM32F4xx_HAL_Driver/Src/stm32f4xx_hal_i2s_ex.c ****   * @param  pRxData a 16-bit pointer to the Receive data buffer.
 539:Drivers/STM32F4xx_HAL_Driver/Src/stm32f4xx_hal_i2s_ex.c ****   * @param  Size number of data sample to be sent:
 540:Drivers/STM32F4xx_HAL_Driver/Src/stm32f4xx_hal_i2s_ex.c ****   * @note   When a 16-bit data frame or a 16-bit data frame extended is selected during the I2S
 541:Drivers/STM32F4xx_HAL_Driver/Src/stm32f4xx_hal_i2s_ex.c ****   *         configuration phase, the Size parameter means the number of 16-bit data length
 542:Drivers/STM32F4xx_HAL_Driver/Src/stm32f4xx_hal_i2s_ex.c ****   *         in the transaction and when a 24-bit data frame or a 32-bit data frame is selected
 543:Drivers/STM32F4xx_HAL_Driver/Src/stm32f4xx_hal_i2s_ex.c ****   *         the Size parameter means the number of 16-bit data length.
ARM GAS  C:\Users\ridel\AppData\Local\Temp\ccOCejYh.s 			page 11


 544:Drivers/STM32F4xx_HAL_Driver/Src/stm32f4xx_hal_i2s_ex.c ****   * @note   The I2S is kept enabled at the end of transaction to avoid the clock de-synchronization
 545:Drivers/STM32F4xx_HAL_Driver/Src/stm32f4xx_hal_i2s_ex.c ****   *         between Master and Slave(example: audio streaming).
 546:Drivers/STM32F4xx_HAL_Driver/Src/stm32f4xx_hal_i2s_ex.c ****   * @retval HAL status
 547:Drivers/STM32F4xx_HAL_Driver/Src/stm32f4xx_hal_i2s_ex.c ****   */
 548:Drivers/STM32F4xx_HAL_Driver/Src/stm32f4xx_hal_i2s_ex.c **** HAL_StatusTypeDef HAL_I2SEx_TransmitReceive_DMA(I2S_HandleTypeDef *hi2s,
 549:Drivers/STM32F4xx_HAL_Driver/Src/stm32f4xx_hal_i2s_ex.c ****                                                 uint16_t *pTxData,
 550:Drivers/STM32F4xx_HAL_Driver/Src/stm32f4xx_hal_i2s_ex.c ****                                                 uint16_t *pRxData,
 551:Drivers/STM32F4xx_HAL_Driver/Src/stm32f4xx_hal_i2s_ex.c ****                                                 uint16_t Size)
 552:Drivers/STM32F4xx_HAL_Driver/Src/stm32f4xx_hal_i2s_ex.c **** {
 553:Drivers/STM32F4xx_HAL_Driver/Src/stm32f4xx_hal_i2s_ex.c ****   uint32_t *tmp = NULL;
 554:Drivers/STM32F4xx_HAL_Driver/Src/stm32f4xx_hal_i2s_ex.c ****   uint32_t tmp1 = 0U;
 555:Drivers/STM32F4xx_HAL_Driver/Src/stm32f4xx_hal_i2s_ex.c **** 
 556:Drivers/STM32F4xx_HAL_Driver/Src/stm32f4xx_hal_i2s_ex.c ****   if (hi2s->State != HAL_I2S_STATE_READY)
 557:Drivers/STM32F4xx_HAL_Driver/Src/stm32f4xx_hal_i2s_ex.c ****   {
 558:Drivers/STM32F4xx_HAL_Driver/Src/stm32f4xx_hal_i2s_ex.c ****     return HAL_BUSY;
 559:Drivers/STM32F4xx_HAL_Driver/Src/stm32f4xx_hal_i2s_ex.c ****   }
 560:Drivers/STM32F4xx_HAL_Driver/Src/stm32f4xx_hal_i2s_ex.c **** 
 561:Drivers/STM32F4xx_HAL_Driver/Src/stm32f4xx_hal_i2s_ex.c ****   if ((pTxData == NULL) || (pRxData == NULL) || (Size == 0U))
 562:Drivers/STM32F4xx_HAL_Driver/Src/stm32f4xx_hal_i2s_ex.c ****   {
 563:Drivers/STM32F4xx_HAL_Driver/Src/stm32f4xx_hal_i2s_ex.c ****     return  HAL_ERROR;
 564:Drivers/STM32F4xx_HAL_Driver/Src/stm32f4xx_hal_i2s_ex.c ****   }
 565:Drivers/STM32F4xx_HAL_Driver/Src/stm32f4xx_hal_i2s_ex.c **** 
 566:Drivers/STM32F4xx_HAL_Driver/Src/stm32f4xx_hal_i2s_ex.c ****   /* Process Locked */
 567:Drivers/STM32F4xx_HAL_Driver/Src/stm32f4xx_hal_i2s_ex.c ****   __HAL_LOCK(hi2s);
 568:Drivers/STM32F4xx_HAL_Driver/Src/stm32f4xx_hal_i2s_ex.c **** 
 569:Drivers/STM32F4xx_HAL_Driver/Src/stm32f4xx_hal_i2s_ex.c ****   hi2s->pTxBuffPtr = pTxData;
 570:Drivers/STM32F4xx_HAL_Driver/Src/stm32f4xx_hal_i2s_ex.c ****   hi2s->pRxBuffPtr = pRxData;
 571:Drivers/STM32F4xx_HAL_Driver/Src/stm32f4xx_hal_i2s_ex.c **** 
 572:Drivers/STM32F4xx_HAL_Driver/Src/stm32f4xx_hal_i2s_ex.c ****   tmp1 = hi2s->Instance->I2SCFGR & (SPI_I2SCFGR_DATLEN | SPI_I2SCFGR_CHLEN);
 573:Drivers/STM32F4xx_HAL_Driver/Src/stm32f4xx_hal_i2s_ex.c ****   /* Check the Data format: When a 16-bit data frame or a 16-bit data frame extended
 574:Drivers/STM32F4xx_HAL_Driver/Src/stm32f4xx_hal_i2s_ex.c ****   is selected during the I2S configuration phase, the Size parameter means the number
 575:Drivers/STM32F4xx_HAL_Driver/Src/stm32f4xx_hal_i2s_ex.c ****   of 16-bit data length in the transaction and when a 24-bit data frame or a 32-bit data
 576:Drivers/STM32F4xx_HAL_Driver/Src/stm32f4xx_hal_i2s_ex.c ****   frame is selected the Size parameter means the number of 16-bit data length. */
 577:Drivers/STM32F4xx_HAL_Driver/Src/stm32f4xx_hal_i2s_ex.c ****   if ((tmp1 == I2S_DATAFORMAT_24B) || (tmp1 == I2S_DATAFORMAT_32B))
 578:Drivers/STM32F4xx_HAL_Driver/Src/stm32f4xx_hal_i2s_ex.c ****   {
 579:Drivers/STM32F4xx_HAL_Driver/Src/stm32f4xx_hal_i2s_ex.c ****     hi2s->TxXferSize  = (Size << 1U);
 580:Drivers/STM32F4xx_HAL_Driver/Src/stm32f4xx_hal_i2s_ex.c ****     hi2s->TxXferCount = (Size << 1U);
 581:Drivers/STM32F4xx_HAL_Driver/Src/stm32f4xx_hal_i2s_ex.c ****     hi2s->RxXferSize  = (Size << 1U);
 582:Drivers/STM32F4xx_HAL_Driver/Src/stm32f4xx_hal_i2s_ex.c ****     hi2s->RxXferCount = (Size << 1U);
 583:Drivers/STM32F4xx_HAL_Driver/Src/stm32f4xx_hal_i2s_ex.c ****   }
 584:Drivers/STM32F4xx_HAL_Driver/Src/stm32f4xx_hal_i2s_ex.c ****   else
 585:Drivers/STM32F4xx_HAL_Driver/Src/stm32f4xx_hal_i2s_ex.c ****   {
 586:Drivers/STM32F4xx_HAL_Driver/Src/stm32f4xx_hal_i2s_ex.c ****     hi2s->TxXferSize  = Size;
 587:Drivers/STM32F4xx_HAL_Driver/Src/stm32f4xx_hal_i2s_ex.c ****     hi2s->TxXferCount = Size;
 588:Drivers/STM32F4xx_HAL_Driver/Src/stm32f4xx_hal_i2s_ex.c ****     hi2s->RxXferSize  = Size;
 589:Drivers/STM32F4xx_HAL_Driver/Src/stm32f4xx_hal_i2s_ex.c ****     hi2s->RxXferCount = Size;
 590:Drivers/STM32F4xx_HAL_Driver/Src/stm32f4xx_hal_i2s_ex.c ****   }
 591:Drivers/STM32F4xx_HAL_Driver/Src/stm32f4xx_hal_i2s_ex.c **** 
 592:Drivers/STM32F4xx_HAL_Driver/Src/stm32f4xx_hal_i2s_ex.c ****   hi2s->ErrorCode = HAL_I2S_ERROR_NONE;
 593:Drivers/STM32F4xx_HAL_Driver/Src/stm32f4xx_hal_i2s_ex.c ****   hi2s->State     = HAL_I2S_STATE_BUSY_TX_RX;
 594:Drivers/STM32F4xx_HAL_Driver/Src/stm32f4xx_hal_i2s_ex.c **** 
 595:Drivers/STM32F4xx_HAL_Driver/Src/stm32f4xx_hal_i2s_ex.c ****   /* Set the I2S Rx DMA Half transfer complete callback */
 596:Drivers/STM32F4xx_HAL_Driver/Src/stm32f4xx_hal_i2s_ex.c ****   hi2s->hdmarx->XferHalfCpltCallback = I2SEx_TxRxDMAHalfCplt;
 597:Drivers/STM32F4xx_HAL_Driver/Src/stm32f4xx_hal_i2s_ex.c **** 
 598:Drivers/STM32F4xx_HAL_Driver/Src/stm32f4xx_hal_i2s_ex.c ****   /* Set the I2S Rx DMA transfer complete callback */
 599:Drivers/STM32F4xx_HAL_Driver/Src/stm32f4xx_hal_i2s_ex.c ****   hi2s->hdmarx->XferCpltCallback  = I2SEx_TxRxDMACplt;
 600:Drivers/STM32F4xx_HAL_Driver/Src/stm32f4xx_hal_i2s_ex.c **** 
ARM GAS  C:\Users\ridel\AppData\Local\Temp\ccOCejYh.s 			page 12


 601:Drivers/STM32F4xx_HAL_Driver/Src/stm32f4xx_hal_i2s_ex.c ****   /* Set the I2S Rx DMA error callback */
 602:Drivers/STM32F4xx_HAL_Driver/Src/stm32f4xx_hal_i2s_ex.c ****   hi2s->hdmarx->XferErrorCallback = I2SEx_TxRxDMAError;
 603:Drivers/STM32F4xx_HAL_Driver/Src/stm32f4xx_hal_i2s_ex.c **** 
 604:Drivers/STM32F4xx_HAL_Driver/Src/stm32f4xx_hal_i2s_ex.c ****   /* Set the I2S Tx DMA Half transfer complete callback as NULL */
 605:Drivers/STM32F4xx_HAL_Driver/Src/stm32f4xx_hal_i2s_ex.c ****   hi2s->hdmatx->XferHalfCpltCallback  = NULL;
 606:Drivers/STM32F4xx_HAL_Driver/Src/stm32f4xx_hal_i2s_ex.c **** 
 607:Drivers/STM32F4xx_HAL_Driver/Src/stm32f4xx_hal_i2s_ex.c ****   /* Set the I2S Tx DMA transfer complete callback as NULL */
 608:Drivers/STM32F4xx_HAL_Driver/Src/stm32f4xx_hal_i2s_ex.c ****   hi2s->hdmatx->XferCpltCallback  = NULL;
 609:Drivers/STM32F4xx_HAL_Driver/Src/stm32f4xx_hal_i2s_ex.c **** 
 610:Drivers/STM32F4xx_HAL_Driver/Src/stm32f4xx_hal_i2s_ex.c ****   /* Set the I2S Tx DMA error callback */
 611:Drivers/STM32F4xx_HAL_Driver/Src/stm32f4xx_hal_i2s_ex.c ****   hi2s->hdmatx->XferErrorCallback = I2SEx_TxRxDMAError;
 612:Drivers/STM32F4xx_HAL_Driver/Src/stm32f4xx_hal_i2s_ex.c **** 
 613:Drivers/STM32F4xx_HAL_Driver/Src/stm32f4xx_hal_i2s_ex.c ****   tmp1 = hi2s->Instance->I2SCFGR & SPI_I2SCFGR_I2SCFG;
 614:Drivers/STM32F4xx_HAL_Driver/Src/stm32f4xx_hal_i2s_ex.c ****   /* Check if the I2S_MODE_MASTER_TX or I2S_MODE_SLAVE_TX Mode is selected */
 615:Drivers/STM32F4xx_HAL_Driver/Src/stm32f4xx_hal_i2s_ex.c ****   if ((tmp1 == I2S_MODE_MASTER_TX) || (tmp1 == I2S_MODE_SLAVE_TX))
 616:Drivers/STM32F4xx_HAL_Driver/Src/stm32f4xx_hal_i2s_ex.c ****   {
 617:Drivers/STM32F4xx_HAL_Driver/Src/stm32f4xx_hal_i2s_ex.c ****     /* Enable the Rx DMA Stream */
 618:Drivers/STM32F4xx_HAL_Driver/Src/stm32f4xx_hal_i2s_ex.c ****     tmp = (uint32_t *)&pRxData;
 619:Drivers/STM32F4xx_HAL_Driver/Src/stm32f4xx_hal_i2s_ex.c ****     HAL_DMA_Start_IT(hi2s->hdmarx, (uint32_t)&I2SxEXT(hi2s->Instance)->DR, *(uint32_t *)tmp, hi2s->
 620:Drivers/STM32F4xx_HAL_Driver/Src/stm32f4xx_hal_i2s_ex.c **** 
 621:Drivers/STM32F4xx_HAL_Driver/Src/stm32f4xx_hal_i2s_ex.c ****     /* Enable Rx DMA Request */
 622:Drivers/STM32F4xx_HAL_Driver/Src/stm32f4xx_hal_i2s_ex.c ****     SET_BIT(I2SxEXT(hi2s->Instance)->CR2, SPI_CR2_RXDMAEN);
 623:Drivers/STM32F4xx_HAL_Driver/Src/stm32f4xx_hal_i2s_ex.c **** 
 624:Drivers/STM32F4xx_HAL_Driver/Src/stm32f4xx_hal_i2s_ex.c ****     /* Enable the Tx DMA Stream */
 625:Drivers/STM32F4xx_HAL_Driver/Src/stm32f4xx_hal_i2s_ex.c ****     tmp = (uint32_t *)&pTxData;
 626:Drivers/STM32F4xx_HAL_Driver/Src/stm32f4xx_hal_i2s_ex.c ****     HAL_DMA_Start_IT(hi2s->hdmatx, *(uint32_t *)tmp, (uint32_t)&hi2s->Instance->DR, hi2s->TxXferSiz
 627:Drivers/STM32F4xx_HAL_Driver/Src/stm32f4xx_hal_i2s_ex.c **** 
 628:Drivers/STM32F4xx_HAL_Driver/Src/stm32f4xx_hal_i2s_ex.c ****     /* Enable Tx DMA Request */
 629:Drivers/STM32F4xx_HAL_Driver/Src/stm32f4xx_hal_i2s_ex.c ****     SET_BIT(hi2s->Instance->CR2, SPI_CR2_TXDMAEN);
 630:Drivers/STM32F4xx_HAL_Driver/Src/stm32f4xx_hal_i2s_ex.c ****   }
 631:Drivers/STM32F4xx_HAL_Driver/Src/stm32f4xx_hal_i2s_ex.c ****   else
 632:Drivers/STM32F4xx_HAL_Driver/Src/stm32f4xx_hal_i2s_ex.c ****   {
 633:Drivers/STM32F4xx_HAL_Driver/Src/stm32f4xx_hal_i2s_ex.c ****     /* Check if Master Receiver mode is selected */
 634:Drivers/STM32F4xx_HAL_Driver/Src/stm32f4xx_hal_i2s_ex.c ****     if ((hi2s->Instance->I2SCFGR & SPI_I2SCFGR_I2SCFG) == I2S_MODE_MASTER_RX)
 635:Drivers/STM32F4xx_HAL_Driver/Src/stm32f4xx_hal_i2s_ex.c ****     {
 636:Drivers/STM32F4xx_HAL_Driver/Src/stm32f4xx_hal_i2s_ex.c ****       /* Clear the Overrun Flag by a read operation on the SPI_DR register followed by a read
 637:Drivers/STM32F4xx_HAL_Driver/Src/stm32f4xx_hal_i2s_ex.c ****       access to the SPI_SR register. */
 638:Drivers/STM32F4xx_HAL_Driver/Src/stm32f4xx_hal_i2s_ex.c ****       __HAL_I2S_CLEAR_OVRFLAG(hi2s);
 639:Drivers/STM32F4xx_HAL_Driver/Src/stm32f4xx_hal_i2s_ex.c ****     }
 640:Drivers/STM32F4xx_HAL_Driver/Src/stm32f4xx_hal_i2s_ex.c ****     /* Enable the Tx DMA Stream */
 641:Drivers/STM32F4xx_HAL_Driver/Src/stm32f4xx_hal_i2s_ex.c ****     tmp = (uint32_t *)&pTxData;
 642:Drivers/STM32F4xx_HAL_Driver/Src/stm32f4xx_hal_i2s_ex.c ****     HAL_DMA_Start_IT(hi2s->hdmatx, *(uint32_t *)tmp, (uint32_t)&I2SxEXT(hi2s->Instance)->DR, hi2s->
 643:Drivers/STM32F4xx_HAL_Driver/Src/stm32f4xx_hal_i2s_ex.c **** 
 644:Drivers/STM32F4xx_HAL_Driver/Src/stm32f4xx_hal_i2s_ex.c ****     /* Enable Tx DMA Request */
 645:Drivers/STM32F4xx_HAL_Driver/Src/stm32f4xx_hal_i2s_ex.c ****     SET_BIT(I2SxEXT(hi2s->Instance)->CR2, SPI_CR2_TXDMAEN);
 646:Drivers/STM32F4xx_HAL_Driver/Src/stm32f4xx_hal_i2s_ex.c **** 
 647:Drivers/STM32F4xx_HAL_Driver/Src/stm32f4xx_hal_i2s_ex.c ****     /* Enable the Rx DMA Stream */
 648:Drivers/STM32F4xx_HAL_Driver/Src/stm32f4xx_hal_i2s_ex.c ****     tmp = (uint32_t *)&pRxData;
 649:Drivers/STM32F4xx_HAL_Driver/Src/stm32f4xx_hal_i2s_ex.c ****     HAL_DMA_Start_IT(hi2s->hdmarx, (uint32_t)&hi2s->Instance->DR, *(uint32_t *)tmp, hi2s->RxXferSiz
 650:Drivers/STM32F4xx_HAL_Driver/Src/stm32f4xx_hal_i2s_ex.c **** 
 651:Drivers/STM32F4xx_HAL_Driver/Src/stm32f4xx_hal_i2s_ex.c ****     /* Enable Rx DMA Request */
 652:Drivers/STM32F4xx_HAL_Driver/Src/stm32f4xx_hal_i2s_ex.c ****     SET_BIT(hi2s->Instance->CR2, SPI_CR2_RXDMAEN);
 653:Drivers/STM32F4xx_HAL_Driver/Src/stm32f4xx_hal_i2s_ex.c ****   }
 654:Drivers/STM32F4xx_HAL_Driver/Src/stm32f4xx_hal_i2s_ex.c **** 
 655:Drivers/STM32F4xx_HAL_Driver/Src/stm32f4xx_hal_i2s_ex.c ****   __HAL_UNLOCK(hi2s);
 656:Drivers/STM32F4xx_HAL_Driver/Src/stm32f4xx_hal_i2s_ex.c ****   /* Check if the I2S is already enabled */
 657:Drivers/STM32F4xx_HAL_Driver/Src/stm32f4xx_hal_i2s_ex.c ****   if ((hi2s->Instance->I2SCFGR & SPI_I2SCFGR_I2SE) != SPI_I2SCFGR_I2SE)
ARM GAS  C:\Users\ridel\AppData\Local\Temp\ccOCejYh.s 			page 13


 658:Drivers/STM32F4xx_HAL_Driver/Src/stm32f4xx_hal_i2s_ex.c ****   {
 659:Drivers/STM32F4xx_HAL_Driver/Src/stm32f4xx_hal_i2s_ex.c ****     /* Enable I2Sext(transmitter) before enabling I2Sx peripheral */
 660:Drivers/STM32F4xx_HAL_Driver/Src/stm32f4xx_hal_i2s_ex.c ****     __HAL_I2SEXT_ENABLE(hi2s);
 661:Drivers/STM32F4xx_HAL_Driver/Src/stm32f4xx_hal_i2s_ex.c ****     /* Enable I2S peripheral before the I2Sext */
 662:Drivers/STM32F4xx_HAL_Driver/Src/stm32f4xx_hal_i2s_ex.c ****     __HAL_I2S_ENABLE(hi2s);
 663:Drivers/STM32F4xx_HAL_Driver/Src/stm32f4xx_hal_i2s_ex.c ****   }
 664:Drivers/STM32F4xx_HAL_Driver/Src/stm32f4xx_hal_i2s_ex.c **** 
 665:Drivers/STM32F4xx_HAL_Driver/Src/stm32f4xx_hal_i2s_ex.c ****   return HAL_OK;
 666:Drivers/STM32F4xx_HAL_Driver/Src/stm32f4xx_hal_i2s_ex.c **** }
 667:Drivers/STM32F4xx_HAL_Driver/Src/stm32f4xx_hal_i2s_ex.c **** 
 668:Drivers/STM32F4xx_HAL_Driver/Src/stm32f4xx_hal_i2s_ex.c **** /**
 669:Drivers/STM32F4xx_HAL_Driver/Src/stm32f4xx_hal_i2s_ex.c ****   * @brief  This function handles I2S/I2Sext interrupt requests in full-duplex mode.
 670:Drivers/STM32F4xx_HAL_Driver/Src/stm32f4xx_hal_i2s_ex.c ****   * @param  hi2s I2S handle
 671:Drivers/STM32F4xx_HAL_Driver/Src/stm32f4xx_hal_i2s_ex.c ****   * @retval HAL status
 672:Drivers/STM32F4xx_HAL_Driver/Src/stm32f4xx_hal_i2s_ex.c ****   */
 673:Drivers/STM32F4xx_HAL_Driver/Src/stm32f4xx_hal_i2s_ex.c **** void HAL_I2SEx_FullDuplex_IRQHandler(I2S_HandleTypeDef *hi2s)
 674:Drivers/STM32F4xx_HAL_Driver/Src/stm32f4xx_hal_i2s_ex.c **** {
 675:Drivers/STM32F4xx_HAL_Driver/Src/stm32f4xx_hal_i2s_ex.c ****   __IO uint32_t i2ssr     = hi2s->Instance->SR;
 676:Drivers/STM32F4xx_HAL_Driver/Src/stm32f4xx_hal_i2s_ex.c ****   __IO uint32_t i2sextsr  = I2SxEXT(hi2s->Instance)->SR;
 677:Drivers/STM32F4xx_HAL_Driver/Src/stm32f4xx_hal_i2s_ex.c ****   __IO uint32_t i2scr2    = hi2s->Instance->CR2;
 678:Drivers/STM32F4xx_HAL_Driver/Src/stm32f4xx_hal_i2s_ex.c ****   __IO uint32_t i2sextcr2 = I2SxEXT(hi2s->Instance)->CR2;
 679:Drivers/STM32F4xx_HAL_Driver/Src/stm32f4xx_hal_i2s_ex.c **** 
 680:Drivers/STM32F4xx_HAL_Driver/Src/stm32f4xx_hal_i2s_ex.c ****   /* Check if the I2S_MODE_MASTER_TX or I2S_MODE_SLAVE_TX Mode is selected */
 681:Drivers/STM32F4xx_HAL_Driver/Src/stm32f4xx_hal_i2s_ex.c ****   if ((hi2s->Init.Mode == I2S_MODE_MASTER_TX) || (hi2s->Init.Mode == I2S_MODE_SLAVE_TX))
 682:Drivers/STM32F4xx_HAL_Driver/Src/stm32f4xx_hal_i2s_ex.c ****   {
 683:Drivers/STM32F4xx_HAL_Driver/Src/stm32f4xx_hal_i2s_ex.c ****     /* I2S in mode Transmitter -------------------------------------------------*/
 684:Drivers/STM32F4xx_HAL_Driver/Src/stm32f4xx_hal_i2s_ex.c ****     if (((i2ssr & I2S_FLAG_TXE) == I2S_FLAG_TXE) && ((i2scr2 & I2S_IT_TXE) != RESET))
 685:Drivers/STM32F4xx_HAL_Driver/Src/stm32f4xx_hal_i2s_ex.c ****     {
 686:Drivers/STM32F4xx_HAL_Driver/Src/stm32f4xx_hal_i2s_ex.c ****       /* When the I2S mode is configured as I2S_MODE_MASTER_TX or I2S_MODE_SLAVE_TX,
 687:Drivers/STM32F4xx_HAL_Driver/Src/stm32f4xx_hal_i2s_ex.c ****       the I2S TXE interrupt will be generated to manage the full-duplex transmit phase. */
 688:Drivers/STM32F4xx_HAL_Driver/Src/stm32f4xx_hal_i2s_ex.c ****       I2SEx_TxISR_I2S(hi2s);
 689:Drivers/STM32F4xx_HAL_Driver/Src/stm32f4xx_hal_i2s_ex.c ****     }
 690:Drivers/STM32F4xx_HAL_Driver/Src/stm32f4xx_hal_i2s_ex.c **** 
 691:Drivers/STM32F4xx_HAL_Driver/Src/stm32f4xx_hal_i2s_ex.c ****     /* I2Sext in mode Receiver -----------------------------------------------*/
 692:Drivers/STM32F4xx_HAL_Driver/Src/stm32f4xx_hal_i2s_ex.c ****     if (((i2sextsr & I2S_FLAG_RXNE) == I2S_FLAG_RXNE) && ((i2sextcr2 & I2S_IT_RXNE) != RESET))
 693:Drivers/STM32F4xx_HAL_Driver/Src/stm32f4xx_hal_i2s_ex.c ****     {
 694:Drivers/STM32F4xx_HAL_Driver/Src/stm32f4xx_hal_i2s_ex.c ****       /* When the I2S mode is configured as I2S_MODE_MASTER_TX or I2S_MODE_SLAVE_TX,
 695:Drivers/STM32F4xx_HAL_Driver/Src/stm32f4xx_hal_i2s_ex.c ****       the I2Sext RXNE interrupt will be generated to manage the full-duplex receive phase. */
 696:Drivers/STM32F4xx_HAL_Driver/Src/stm32f4xx_hal_i2s_ex.c ****       I2SEx_RxISR_I2SExt(hi2s);
 697:Drivers/STM32F4xx_HAL_Driver/Src/stm32f4xx_hal_i2s_ex.c ****     }
 698:Drivers/STM32F4xx_HAL_Driver/Src/stm32f4xx_hal_i2s_ex.c **** 
 699:Drivers/STM32F4xx_HAL_Driver/Src/stm32f4xx_hal_i2s_ex.c ****     /* I2Sext Overrun error interrupt occurred --------------------------------*/
 700:Drivers/STM32F4xx_HAL_Driver/Src/stm32f4xx_hal_i2s_ex.c ****     if (((i2sextsr & I2S_FLAG_OVR) == I2S_FLAG_OVR) && ((i2sextcr2 & I2S_IT_ERR) != RESET))
 701:Drivers/STM32F4xx_HAL_Driver/Src/stm32f4xx_hal_i2s_ex.c ****     {
 702:Drivers/STM32F4xx_HAL_Driver/Src/stm32f4xx_hal_i2s_ex.c ****       /* Disable RXNE and ERR interrupt */
 703:Drivers/STM32F4xx_HAL_Driver/Src/stm32f4xx_hal_i2s_ex.c ****       __HAL_I2SEXT_DISABLE_IT(hi2s, (I2S_IT_RXNE | I2S_IT_ERR));
 704:Drivers/STM32F4xx_HAL_Driver/Src/stm32f4xx_hal_i2s_ex.c **** 
 705:Drivers/STM32F4xx_HAL_Driver/Src/stm32f4xx_hal_i2s_ex.c ****       /* Disable TXE and ERR interrupt */
 706:Drivers/STM32F4xx_HAL_Driver/Src/stm32f4xx_hal_i2s_ex.c ****       __HAL_I2S_DISABLE_IT(hi2s, (I2S_IT_TXE | I2S_IT_ERR));
 707:Drivers/STM32F4xx_HAL_Driver/Src/stm32f4xx_hal_i2s_ex.c **** 
 708:Drivers/STM32F4xx_HAL_Driver/Src/stm32f4xx_hal_i2s_ex.c ****       /* Clear Overrun flag */
 709:Drivers/STM32F4xx_HAL_Driver/Src/stm32f4xx_hal_i2s_ex.c ****       __HAL_I2S_CLEAR_OVRFLAG(hi2s);
 710:Drivers/STM32F4xx_HAL_Driver/Src/stm32f4xx_hal_i2s_ex.c **** 
 711:Drivers/STM32F4xx_HAL_Driver/Src/stm32f4xx_hal_i2s_ex.c ****       /* Set the I2S State ready */
 712:Drivers/STM32F4xx_HAL_Driver/Src/stm32f4xx_hal_i2s_ex.c ****       hi2s->State = HAL_I2S_STATE_READY;
 713:Drivers/STM32F4xx_HAL_Driver/Src/stm32f4xx_hal_i2s_ex.c **** 
 714:Drivers/STM32F4xx_HAL_Driver/Src/stm32f4xx_hal_i2s_ex.c ****       /* Set the error code and execute error callback*/
ARM GAS  C:\Users\ridel\AppData\Local\Temp\ccOCejYh.s 			page 14


 715:Drivers/STM32F4xx_HAL_Driver/Src/stm32f4xx_hal_i2s_ex.c ****       SET_BIT(hi2s->ErrorCode, HAL_I2S_ERROR_OVR);
 716:Drivers/STM32F4xx_HAL_Driver/Src/stm32f4xx_hal_i2s_ex.c ****       /* Call user error callback */
 717:Drivers/STM32F4xx_HAL_Driver/Src/stm32f4xx_hal_i2s_ex.c **** #if (USE_HAL_I2S_REGISTER_CALLBACKS == 1U)
 718:Drivers/STM32F4xx_HAL_Driver/Src/stm32f4xx_hal_i2s_ex.c ****       hi2s->ErrorCallback(hi2s);
 719:Drivers/STM32F4xx_HAL_Driver/Src/stm32f4xx_hal_i2s_ex.c **** #else
 720:Drivers/STM32F4xx_HAL_Driver/Src/stm32f4xx_hal_i2s_ex.c ****       HAL_I2S_ErrorCallback(hi2s);
 721:Drivers/STM32F4xx_HAL_Driver/Src/stm32f4xx_hal_i2s_ex.c **** #endif /* USE_HAL_I2S_REGISTER_CALLBACKS */
 722:Drivers/STM32F4xx_HAL_Driver/Src/stm32f4xx_hal_i2s_ex.c ****     }
 723:Drivers/STM32F4xx_HAL_Driver/Src/stm32f4xx_hal_i2s_ex.c **** 
 724:Drivers/STM32F4xx_HAL_Driver/Src/stm32f4xx_hal_i2s_ex.c ****     /* I2S Underrun error interrupt occurred ----------------------------------*/
 725:Drivers/STM32F4xx_HAL_Driver/Src/stm32f4xx_hal_i2s_ex.c ****     if (((i2ssr & I2S_FLAG_UDR) == I2S_FLAG_UDR) && ((i2scr2 & I2S_IT_ERR) != RESET))
 726:Drivers/STM32F4xx_HAL_Driver/Src/stm32f4xx_hal_i2s_ex.c ****     {
 727:Drivers/STM32F4xx_HAL_Driver/Src/stm32f4xx_hal_i2s_ex.c ****       /* Disable TXE and ERR interrupt */
 728:Drivers/STM32F4xx_HAL_Driver/Src/stm32f4xx_hal_i2s_ex.c ****       __HAL_I2S_DISABLE_IT(hi2s, (I2S_IT_TXE | I2S_IT_ERR));
 729:Drivers/STM32F4xx_HAL_Driver/Src/stm32f4xx_hal_i2s_ex.c **** 
 730:Drivers/STM32F4xx_HAL_Driver/Src/stm32f4xx_hal_i2s_ex.c ****       /* Disable RXNE and ERR interrupt */
 731:Drivers/STM32F4xx_HAL_Driver/Src/stm32f4xx_hal_i2s_ex.c ****       __HAL_I2SEXT_DISABLE_IT(hi2s, (I2S_IT_RXNE | I2S_IT_ERR));
 732:Drivers/STM32F4xx_HAL_Driver/Src/stm32f4xx_hal_i2s_ex.c **** 
 733:Drivers/STM32F4xx_HAL_Driver/Src/stm32f4xx_hal_i2s_ex.c ****       /* Clear underrun flag */
 734:Drivers/STM32F4xx_HAL_Driver/Src/stm32f4xx_hal_i2s_ex.c ****       __HAL_I2S_CLEAR_UDRFLAG(hi2s);
 735:Drivers/STM32F4xx_HAL_Driver/Src/stm32f4xx_hal_i2s_ex.c **** 
 736:Drivers/STM32F4xx_HAL_Driver/Src/stm32f4xx_hal_i2s_ex.c ****       /* Set the I2S State ready */
 737:Drivers/STM32F4xx_HAL_Driver/Src/stm32f4xx_hal_i2s_ex.c ****       hi2s->State = HAL_I2S_STATE_READY;
 738:Drivers/STM32F4xx_HAL_Driver/Src/stm32f4xx_hal_i2s_ex.c **** 
 739:Drivers/STM32F4xx_HAL_Driver/Src/stm32f4xx_hal_i2s_ex.c ****       /* Set the error code and execute error callback*/
 740:Drivers/STM32F4xx_HAL_Driver/Src/stm32f4xx_hal_i2s_ex.c ****       SET_BIT(hi2s->ErrorCode, HAL_I2S_ERROR_UDR);
 741:Drivers/STM32F4xx_HAL_Driver/Src/stm32f4xx_hal_i2s_ex.c ****       /* Call user error callback */
 742:Drivers/STM32F4xx_HAL_Driver/Src/stm32f4xx_hal_i2s_ex.c **** #if (USE_HAL_I2S_REGISTER_CALLBACKS == 1U)
 743:Drivers/STM32F4xx_HAL_Driver/Src/stm32f4xx_hal_i2s_ex.c ****       hi2s->ErrorCallback(hi2s);
 744:Drivers/STM32F4xx_HAL_Driver/Src/stm32f4xx_hal_i2s_ex.c **** #else
 745:Drivers/STM32F4xx_HAL_Driver/Src/stm32f4xx_hal_i2s_ex.c ****       HAL_I2S_ErrorCallback(hi2s);
 746:Drivers/STM32F4xx_HAL_Driver/Src/stm32f4xx_hal_i2s_ex.c **** #endif /* USE_HAL_I2S_REGISTER_CALLBACKS */
 747:Drivers/STM32F4xx_HAL_Driver/Src/stm32f4xx_hal_i2s_ex.c ****     }
 748:Drivers/STM32F4xx_HAL_Driver/Src/stm32f4xx_hal_i2s_ex.c ****   }
 749:Drivers/STM32F4xx_HAL_Driver/Src/stm32f4xx_hal_i2s_ex.c ****   /* The I2S_MODE_MASTER_RX or I2S_MODE_SLAVE_RX Mode is selected */
 750:Drivers/STM32F4xx_HAL_Driver/Src/stm32f4xx_hal_i2s_ex.c ****   else
 751:Drivers/STM32F4xx_HAL_Driver/Src/stm32f4xx_hal_i2s_ex.c ****   {
 752:Drivers/STM32F4xx_HAL_Driver/Src/stm32f4xx_hal_i2s_ex.c ****     /* I2Sext in mode Transmitter ----------------------------------------------*/
 753:Drivers/STM32F4xx_HAL_Driver/Src/stm32f4xx_hal_i2s_ex.c ****     if (((i2sextsr & I2S_FLAG_TXE) == I2S_FLAG_TXE) && ((i2sextcr2 & I2S_IT_TXE) != RESET))
 754:Drivers/STM32F4xx_HAL_Driver/Src/stm32f4xx_hal_i2s_ex.c ****     {
 755:Drivers/STM32F4xx_HAL_Driver/Src/stm32f4xx_hal_i2s_ex.c ****       /* When the I2S mode is configured as I2S_MODE_MASTER_RX or I2S_MODE_SLAVE_RX,
 756:Drivers/STM32F4xx_HAL_Driver/Src/stm32f4xx_hal_i2s_ex.c ****       the I2Sext TXE interrupt will be generated to manage the full-duplex transmit phase. */
 757:Drivers/STM32F4xx_HAL_Driver/Src/stm32f4xx_hal_i2s_ex.c ****       I2SEx_TxISR_I2SExt(hi2s);
 758:Drivers/STM32F4xx_HAL_Driver/Src/stm32f4xx_hal_i2s_ex.c ****     }
 759:Drivers/STM32F4xx_HAL_Driver/Src/stm32f4xx_hal_i2s_ex.c **** 
 760:Drivers/STM32F4xx_HAL_Driver/Src/stm32f4xx_hal_i2s_ex.c ****     /* I2S in mode Receiver --------------------------------------------------*/
 761:Drivers/STM32F4xx_HAL_Driver/Src/stm32f4xx_hal_i2s_ex.c ****     if (((i2ssr & I2S_FLAG_RXNE) == I2S_FLAG_RXNE) && ((i2scr2 & I2S_IT_RXNE) != RESET))
 762:Drivers/STM32F4xx_HAL_Driver/Src/stm32f4xx_hal_i2s_ex.c ****     {
 763:Drivers/STM32F4xx_HAL_Driver/Src/stm32f4xx_hal_i2s_ex.c ****       /* When the I2S mode is configured as I2S_MODE_MASTER_RX or I2S_MODE_SLAVE_RX,
 764:Drivers/STM32F4xx_HAL_Driver/Src/stm32f4xx_hal_i2s_ex.c ****       the I2S RXNE interrupt will be generated to manage the full-duplex receive phase. */
 765:Drivers/STM32F4xx_HAL_Driver/Src/stm32f4xx_hal_i2s_ex.c ****       I2SEx_RxISR_I2S(hi2s);
 766:Drivers/STM32F4xx_HAL_Driver/Src/stm32f4xx_hal_i2s_ex.c ****     }
 767:Drivers/STM32F4xx_HAL_Driver/Src/stm32f4xx_hal_i2s_ex.c **** 
 768:Drivers/STM32F4xx_HAL_Driver/Src/stm32f4xx_hal_i2s_ex.c ****     /* I2S Overrun error interrupt occurred -------------------------------------*/
 769:Drivers/STM32F4xx_HAL_Driver/Src/stm32f4xx_hal_i2s_ex.c ****     if (((i2ssr & I2S_FLAG_OVR) == I2S_FLAG_OVR) && ((i2scr2 & I2S_IT_ERR) != RESET))
 770:Drivers/STM32F4xx_HAL_Driver/Src/stm32f4xx_hal_i2s_ex.c ****     {
 771:Drivers/STM32F4xx_HAL_Driver/Src/stm32f4xx_hal_i2s_ex.c ****       /* Disable RXNE and ERR interrupt */
ARM GAS  C:\Users\ridel\AppData\Local\Temp\ccOCejYh.s 			page 15


 772:Drivers/STM32F4xx_HAL_Driver/Src/stm32f4xx_hal_i2s_ex.c ****       __HAL_I2S_DISABLE_IT(hi2s, (I2S_IT_RXNE | I2S_IT_ERR));
 773:Drivers/STM32F4xx_HAL_Driver/Src/stm32f4xx_hal_i2s_ex.c **** 
 774:Drivers/STM32F4xx_HAL_Driver/Src/stm32f4xx_hal_i2s_ex.c ****       /* Disable TXE and ERR interrupt */
 775:Drivers/STM32F4xx_HAL_Driver/Src/stm32f4xx_hal_i2s_ex.c ****       __HAL_I2SEXT_DISABLE_IT(hi2s, (I2S_IT_TXE | I2S_IT_ERR));
 776:Drivers/STM32F4xx_HAL_Driver/Src/stm32f4xx_hal_i2s_ex.c **** 
 777:Drivers/STM32F4xx_HAL_Driver/Src/stm32f4xx_hal_i2s_ex.c ****       /* Set the I2S State ready */
 778:Drivers/STM32F4xx_HAL_Driver/Src/stm32f4xx_hal_i2s_ex.c ****       hi2s->State = HAL_I2S_STATE_READY;
 779:Drivers/STM32F4xx_HAL_Driver/Src/stm32f4xx_hal_i2s_ex.c **** 
 780:Drivers/STM32F4xx_HAL_Driver/Src/stm32f4xx_hal_i2s_ex.c ****       /* Set the error code and execute error callback*/
 781:Drivers/STM32F4xx_HAL_Driver/Src/stm32f4xx_hal_i2s_ex.c ****       SET_BIT(hi2s->ErrorCode, HAL_I2S_ERROR_OVR);
 782:Drivers/STM32F4xx_HAL_Driver/Src/stm32f4xx_hal_i2s_ex.c ****       /* Call user error callback */
 783:Drivers/STM32F4xx_HAL_Driver/Src/stm32f4xx_hal_i2s_ex.c **** #if (USE_HAL_I2S_REGISTER_CALLBACKS == 1U)
 784:Drivers/STM32F4xx_HAL_Driver/Src/stm32f4xx_hal_i2s_ex.c ****       hi2s->ErrorCallback(hi2s);
 785:Drivers/STM32F4xx_HAL_Driver/Src/stm32f4xx_hal_i2s_ex.c **** #else
 786:Drivers/STM32F4xx_HAL_Driver/Src/stm32f4xx_hal_i2s_ex.c ****       HAL_I2S_ErrorCallback(hi2s);
 787:Drivers/STM32F4xx_HAL_Driver/Src/stm32f4xx_hal_i2s_ex.c **** #endif /* USE_HAL_I2S_REGISTER_CALLBACKS */
 788:Drivers/STM32F4xx_HAL_Driver/Src/stm32f4xx_hal_i2s_ex.c ****     }
 789:Drivers/STM32F4xx_HAL_Driver/Src/stm32f4xx_hal_i2s_ex.c **** 
 790:Drivers/STM32F4xx_HAL_Driver/Src/stm32f4xx_hal_i2s_ex.c ****     /* I2Sext Underrun error interrupt occurred -------------------------------*/
 791:Drivers/STM32F4xx_HAL_Driver/Src/stm32f4xx_hal_i2s_ex.c ****     if (((i2sextsr & I2S_FLAG_UDR) == I2S_FLAG_UDR) && ((i2sextcr2 & I2S_IT_ERR) != RESET))
 792:Drivers/STM32F4xx_HAL_Driver/Src/stm32f4xx_hal_i2s_ex.c ****     {
 793:Drivers/STM32F4xx_HAL_Driver/Src/stm32f4xx_hal_i2s_ex.c ****       /* Disable TXE and ERR interrupt */
 794:Drivers/STM32F4xx_HAL_Driver/Src/stm32f4xx_hal_i2s_ex.c ****       __HAL_I2SEXT_DISABLE_IT(hi2s, (I2S_IT_TXE | I2S_IT_ERR));
 795:Drivers/STM32F4xx_HAL_Driver/Src/stm32f4xx_hal_i2s_ex.c **** 
 796:Drivers/STM32F4xx_HAL_Driver/Src/stm32f4xx_hal_i2s_ex.c ****       /* Disable RXNE and ERR interrupt */
 797:Drivers/STM32F4xx_HAL_Driver/Src/stm32f4xx_hal_i2s_ex.c ****       __HAL_I2S_DISABLE_IT(hi2s, (I2S_IT_RXNE | I2S_IT_ERR));
 798:Drivers/STM32F4xx_HAL_Driver/Src/stm32f4xx_hal_i2s_ex.c **** 
 799:Drivers/STM32F4xx_HAL_Driver/Src/stm32f4xx_hal_i2s_ex.c ****       /* Set the I2S State ready */
 800:Drivers/STM32F4xx_HAL_Driver/Src/stm32f4xx_hal_i2s_ex.c ****       hi2s->State = HAL_I2S_STATE_READY;
 801:Drivers/STM32F4xx_HAL_Driver/Src/stm32f4xx_hal_i2s_ex.c **** 
 802:Drivers/STM32F4xx_HAL_Driver/Src/stm32f4xx_hal_i2s_ex.c ****       /* Set the error code and execute error callback*/
 803:Drivers/STM32F4xx_HAL_Driver/Src/stm32f4xx_hal_i2s_ex.c ****       SET_BIT(hi2s->ErrorCode, HAL_I2S_ERROR_UDR);
 804:Drivers/STM32F4xx_HAL_Driver/Src/stm32f4xx_hal_i2s_ex.c ****       /* Call user error callback */
 805:Drivers/STM32F4xx_HAL_Driver/Src/stm32f4xx_hal_i2s_ex.c **** #if (USE_HAL_I2S_REGISTER_CALLBACKS == 1U)
 806:Drivers/STM32F4xx_HAL_Driver/Src/stm32f4xx_hal_i2s_ex.c ****       hi2s->ErrorCallback(hi2s);
 807:Drivers/STM32F4xx_HAL_Driver/Src/stm32f4xx_hal_i2s_ex.c **** #else
 808:Drivers/STM32F4xx_HAL_Driver/Src/stm32f4xx_hal_i2s_ex.c ****       HAL_I2S_ErrorCallback(hi2s);
 809:Drivers/STM32F4xx_HAL_Driver/Src/stm32f4xx_hal_i2s_ex.c **** #endif /* USE_HAL_I2S_REGISTER_CALLBACKS */
 810:Drivers/STM32F4xx_HAL_Driver/Src/stm32f4xx_hal_i2s_ex.c ****     }
 811:Drivers/STM32F4xx_HAL_Driver/Src/stm32f4xx_hal_i2s_ex.c ****   }
 812:Drivers/STM32F4xx_HAL_Driver/Src/stm32f4xx_hal_i2s_ex.c **** }
 813:Drivers/STM32F4xx_HAL_Driver/Src/stm32f4xx_hal_i2s_ex.c **** 
 814:Drivers/STM32F4xx_HAL_Driver/Src/stm32f4xx_hal_i2s_ex.c **** /**
 815:Drivers/STM32F4xx_HAL_Driver/Src/stm32f4xx_hal_i2s_ex.c ****   * @brief  Tx and Rx Transfer half completed callback
 816:Drivers/STM32F4xx_HAL_Driver/Src/stm32f4xx_hal_i2s_ex.c ****   * @param  hi2s I2S handle
 817:Drivers/STM32F4xx_HAL_Driver/Src/stm32f4xx_hal_i2s_ex.c ****   * @retval None
 818:Drivers/STM32F4xx_HAL_Driver/Src/stm32f4xx_hal_i2s_ex.c ****   */
 819:Drivers/STM32F4xx_HAL_Driver/Src/stm32f4xx_hal_i2s_ex.c **** __weak void HAL_I2SEx_TxRxHalfCpltCallback(I2S_HandleTypeDef *hi2s)
 820:Drivers/STM32F4xx_HAL_Driver/Src/stm32f4xx_hal_i2s_ex.c **** {
 821:Drivers/STM32F4xx_HAL_Driver/Src/stm32f4xx_hal_i2s_ex.c ****   /* Prevent unused argument(s) compilation warning */
 822:Drivers/STM32F4xx_HAL_Driver/Src/stm32f4xx_hal_i2s_ex.c ****   UNUSED(hi2s);
 823:Drivers/STM32F4xx_HAL_Driver/Src/stm32f4xx_hal_i2s_ex.c **** 
 824:Drivers/STM32F4xx_HAL_Driver/Src/stm32f4xx_hal_i2s_ex.c ****   /* NOTE : This function Should not be modified, when the callback is needed,
 825:Drivers/STM32F4xx_HAL_Driver/Src/stm32f4xx_hal_i2s_ex.c ****             the HAL_I2SEx_TxRxHalfCpltCallback could be implemented in the user file
 826:Drivers/STM32F4xx_HAL_Driver/Src/stm32f4xx_hal_i2s_ex.c ****    */
 827:Drivers/STM32F4xx_HAL_Driver/Src/stm32f4xx_hal_i2s_ex.c **** }
 828:Drivers/STM32F4xx_HAL_Driver/Src/stm32f4xx_hal_i2s_ex.c **** 
ARM GAS  C:\Users\ridel\AppData\Local\Temp\ccOCejYh.s 			page 16


 829:Drivers/STM32F4xx_HAL_Driver/Src/stm32f4xx_hal_i2s_ex.c **** /**
 830:Drivers/STM32F4xx_HAL_Driver/Src/stm32f4xx_hal_i2s_ex.c ****   * @brief  Tx and Rx Transfer completed callback
 831:Drivers/STM32F4xx_HAL_Driver/Src/stm32f4xx_hal_i2s_ex.c ****   * @param  hi2s I2S handle
 832:Drivers/STM32F4xx_HAL_Driver/Src/stm32f4xx_hal_i2s_ex.c ****   * @retval None
 833:Drivers/STM32F4xx_HAL_Driver/Src/stm32f4xx_hal_i2s_ex.c ****   */
 834:Drivers/STM32F4xx_HAL_Driver/Src/stm32f4xx_hal_i2s_ex.c **** __weak void HAL_I2SEx_TxRxCpltCallback(I2S_HandleTypeDef *hi2s)
 835:Drivers/STM32F4xx_HAL_Driver/Src/stm32f4xx_hal_i2s_ex.c **** {
 836:Drivers/STM32F4xx_HAL_Driver/Src/stm32f4xx_hal_i2s_ex.c ****   /* Prevent unused argument(s) compilation warning */
 837:Drivers/STM32F4xx_HAL_Driver/Src/stm32f4xx_hal_i2s_ex.c ****   UNUSED(hi2s);
 838:Drivers/STM32F4xx_HAL_Driver/Src/stm32f4xx_hal_i2s_ex.c **** 
 839:Drivers/STM32F4xx_HAL_Driver/Src/stm32f4xx_hal_i2s_ex.c ****   /* NOTE : This function should not be modified, when the callback is needed,
 840:Drivers/STM32F4xx_HAL_Driver/Src/stm32f4xx_hal_i2s_ex.c ****             the HAL_I2SEx_TxRxCpltCallback could be implemented in the user file
 841:Drivers/STM32F4xx_HAL_Driver/Src/stm32f4xx_hal_i2s_ex.c ****    */
 842:Drivers/STM32F4xx_HAL_Driver/Src/stm32f4xx_hal_i2s_ex.c **** }
 843:Drivers/STM32F4xx_HAL_Driver/Src/stm32f4xx_hal_i2s_ex.c **** 
 844:Drivers/STM32F4xx_HAL_Driver/Src/stm32f4xx_hal_i2s_ex.c **** /**
 845:Drivers/STM32F4xx_HAL_Driver/Src/stm32f4xx_hal_i2s_ex.c ****   * @}
 846:Drivers/STM32F4xx_HAL_Driver/Src/stm32f4xx_hal_i2s_ex.c ****   */
 847:Drivers/STM32F4xx_HAL_Driver/Src/stm32f4xx_hal_i2s_ex.c **** 
 848:Drivers/STM32F4xx_HAL_Driver/Src/stm32f4xx_hal_i2s_ex.c **** /**
 849:Drivers/STM32F4xx_HAL_Driver/Src/stm32f4xx_hal_i2s_ex.c ****   * @}
 850:Drivers/STM32F4xx_HAL_Driver/Src/stm32f4xx_hal_i2s_ex.c ****   */
 851:Drivers/STM32F4xx_HAL_Driver/Src/stm32f4xx_hal_i2s_ex.c **** 
 852:Drivers/STM32F4xx_HAL_Driver/Src/stm32f4xx_hal_i2s_ex.c **** /** @addtogroup I2SEx_Private_Functions I2S Extended Private Functions
 853:Drivers/STM32F4xx_HAL_Driver/Src/stm32f4xx_hal_i2s_ex.c ****   * @{
 854:Drivers/STM32F4xx_HAL_Driver/Src/stm32f4xx_hal_i2s_ex.c ****   */
 855:Drivers/STM32F4xx_HAL_Driver/Src/stm32f4xx_hal_i2s_ex.c **** 
 856:Drivers/STM32F4xx_HAL_Driver/Src/stm32f4xx_hal_i2s_ex.c **** /**
 857:Drivers/STM32F4xx_HAL_Driver/Src/stm32f4xx_hal_i2s_ex.c ****   * @brief  DMA I2S transmit receive process half complete callback
 858:Drivers/STM32F4xx_HAL_Driver/Src/stm32f4xx_hal_i2s_ex.c ****   * @param  hdma pointer to a DMA_HandleTypeDef structure that contains
 859:Drivers/STM32F4xx_HAL_Driver/Src/stm32f4xx_hal_i2s_ex.c ****   *               the configuration information for the specified DMA module.
 860:Drivers/STM32F4xx_HAL_Driver/Src/stm32f4xx_hal_i2s_ex.c ****   * @retval None
 861:Drivers/STM32F4xx_HAL_Driver/Src/stm32f4xx_hal_i2s_ex.c ****   */
 862:Drivers/STM32F4xx_HAL_Driver/Src/stm32f4xx_hal_i2s_ex.c **** static void I2SEx_TxRxDMAHalfCplt(DMA_HandleTypeDef *hdma)
 863:Drivers/STM32F4xx_HAL_Driver/Src/stm32f4xx_hal_i2s_ex.c **** {
 864:Drivers/STM32F4xx_HAL_Driver/Src/stm32f4xx_hal_i2s_ex.c ****   I2S_HandleTypeDef *hi2s = (I2S_HandleTypeDef *)((DMA_HandleTypeDef *)hdma)->Parent;
 865:Drivers/STM32F4xx_HAL_Driver/Src/stm32f4xx_hal_i2s_ex.c **** 
 866:Drivers/STM32F4xx_HAL_Driver/Src/stm32f4xx_hal_i2s_ex.c ****   /* Call user TxRx Half complete callback */
 867:Drivers/STM32F4xx_HAL_Driver/Src/stm32f4xx_hal_i2s_ex.c **** #if (USE_HAL_I2S_REGISTER_CALLBACKS == 1U)
 868:Drivers/STM32F4xx_HAL_Driver/Src/stm32f4xx_hal_i2s_ex.c ****   hi2s->TxRxHalfCpltCallback(hi2s);
 869:Drivers/STM32F4xx_HAL_Driver/Src/stm32f4xx_hal_i2s_ex.c **** #else
 870:Drivers/STM32F4xx_HAL_Driver/Src/stm32f4xx_hal_i2s_ex.c ****   HAL_I2SEx_TxRxHalfCpltCallback(hi2s);
 871:Drivers/STM32F4xx_HAL_Driver/Src/stm32f4xx_hal_i2s_ex.c **** #endif /* USE_HAL_I2S_REGISTER_CALLBACKS */
 872:Drivers/STM32F4xx_HAL_Driver/Src/stm32f4xx_hal_i2s_ex.c **** }
 873:Drivers/STM32F4xx_HAL_Driver/Src/stm32f4xx_hal_i2s_ex.c **** 
 874:Drivers/STM32F4xx_HAL_Driver/Src/stm32f4xx_hal_i2s_ex.c **** /**
 875:Drivers/STM32F4xx_HAL_Driver/Src/stm32f4xx_hal_i2s_ex.c ****   * @brief  DMA I2S transmit receive process complete callback
 876:Drivers/STM32F4xx_HAL_Driver/Src/stm32f4xx_hal_i2s_ex.c ****   * @param  hdma pointer to a DMA_HandleTypeDef structure that contains
 877:Drivers/STM32F4xx_HAL_Driver/Src/stm32f4xx_hal_i2s_ex.c ****   *               the configuration information for the specified DMA module.
 878:Drivers/STM32F4xx_HAL_Driver/Src/stm32f4xx_hal_i2s_ex.c ****   * @retval None
 879:Drivers/STM32F4xx_HAL_Driver/Src/stm32f4xx_hal_i2s_ex.c ****   */
 880:Drivers/STM32F4xx_HAL_Driver/Src/stm32f4xx_hal_i2s_ex.c **** static void I2SEx_TxRxDMACplt(DMA_HandleTypeDef *hdma)
 881:Drivers/STM32F4xx_HAL_Driver/Src/stm32f4xx_hal_i2s_ex.c **** {
 882:Drivers/STM32F4xx_HAL_Driver/Src/stm32f4xx_hal_i2s_ex.c ****   I2S_HandleTypeDef *hi2s = (I2S_HandleTypeDef *)((DMA_HandleTypeDef *)hdma)->Parent;
 883:Drivers/STM32F4xx_HAL_Driver/Src/stm32f4xx_hal_i2s_ex.c **** 
 884:Drivers/STM32F4xx_HAL_Driver/Src/stm32f4xx_hal_i2s_ex.c ****   /* If DMA is configured in DMA_NORMAL mode */
 885:Drivers/STM32F4xx_HAL_Driver/Src/stm32f4xx_hal_i2s_ex.c ****   if (hdma->Init.Mode == DMA_NORMAL)
ARM GAS  C:\Users\ridel\AppData\Local\Temp\ccOCejYh.s 			page 17


 886:Drivers/STM32F4xx_HAL_Driver/Src/stm32f4xx_hal_i2s_ex.c ****   {
 887:Drivers/STM32F4xx_HAL_Driver/Src/stm32f4xx_hal_i2s_ex.c ****     if (((hi2s->Instance->I2SCFGR & SPI_I2SCFGR_I2SCFG) == I2S_MODE_MASTER_TX) || \
 888:Drivers/STM32F4xx_HAL_Driver/Src/stm32f4xx_hal_i2s_ex.c ****         ((hi2s->Instance->I2SCFGR & SPI_I2SCFGR_I2SCFG) == I2S_MODE_SLAVE_TX))
 889:Drivers/STM32F4xx_HAL_Driver/Src/stm32f4xx_hal_i2s_ex.c ****     /* Disable Tx & Rx DMA Requests */
 890:Drivers/STM32F4xx_HAL_Driver/Src/stm32f4xx_hal_i2s_ex.c ****     {
 891:Drivers/STM32F4xx_HAL_Driver/Src/stm32f4xx_hal_i2s_ex.c ****       CLEAR_BIT(I2SxEXT(hi2s->Instance)->CR2, SPI_CR2_RXDMAEN);
 892:Drivers/STM32F4xx_HAL_Driver/Src/stm32f4xx_hal_i2s_ex.c ****       CLEAR_BIT(hi2s->Instance->CR2, SPI_CR2_TXDMAEN);
 893:Drivers/STM32F4xx_HAL_Driver/Src/stm32f4xx_hal_i2s_ex.c ****     }
 894:Drivers/STM32F4xx_HAL_Driver/Src/stm32f4xx_hal_i2s_ex.c ****     else
 895:Drivers/STM32F4xx_HAL_Driver/Src/stm32f4xx_hal_i2s_ex.c ****     {
 896:Drivers/STM32F4xx_HAL_Driver/Src/stm32f4xx_hal_i2s_ex.c ****       CLEAR_BIT(hi2s->Instance->CR2, SPI_CR2_RXDMAEN);
 897:Drivers/STM32F4xx_HAL_Driver/Src/stm32f4xx_hal_i2s_ex.c ****       CLEAR_BIT(I2SxEXT(hi2s->Instance)->CR2, SPI_CR2_TXDMAEN);
 898:Drivers/STM32F4xx_HAL_Driver/Src/stm32f4xx_hal_i2s_ex.c ****     }
 899:Drivers/STM32F4xx_HAL_Driver/Src/stm32f4xx_hal_i2s_ex.c **** 
 900:Drivers/STM32F4xx_HAL_Driver/Src/stm32f4xx_hal_i2s_ex.c ****     hi2s->RxXferCount = 0U;
 901:Drivers/STM32F4xx_HAL_Driver/Src/stm32f4xx_hal_i2s_ex.c ****     hi2s->TxXferCount = 0U;
 902:Drivers/STM32F4xx_HAL_Driver/Src/stm32f4xx_hal_i2s_ex.c **** 
 903:Drivers/STM32F4xx_HAL_Driver/Src/stm32f4xx_hal_i2s_ex.c ****     hi2s->State = HAL_I2S_STATE_READY;
 904:Drivers/STM32F4xx_HAL_Driver/Src/stm32f4xx_hal_i2s_ex.c ****   }
 905:Drivers/STM32F4xx_HAL_Driver/Src/stm32f4xx_hal_i2s_ex.c **** 
 906:Drivers/STM32F4xx_HAL_Driver/Src/stm32f4xx_hal_i2s_ex.c ****   /* Call user TxRx complete callback */
 907:Drivers/STM32F4xx_HAL_Driver/Src/stm32f4xx_hal_i2s_ex.c **** #if (USE_HAL_I2S_REGISTER_CALLBACKS == 1U)
 908:Drivers/STM32F4xx_HAL_Driver/Src/stm32f4xx_hal_i2s_ex.c ****   hi2s->TxRxCpltCallback(hi2s);
 909:Drivers/STM32F4xx_HAL_Driver/Src/stm32f4xx_hal_i2s_ex.c **** #else
 910:Drivers/STM32F4xx_HAL_Driver/Src/stm32f4xx_hal_i2s_ex.c ****   HAL_I2SEx_TxRxCpltCallback(hi2s);
 911:Drivers/STM32F4xx_HAL_Driver/Src/stm32f4xx_hal_i2s_ex.c **** #endif /* USE_HAL_I2S_REGISTER_CALLBACKS */
 912:Drivers/STM32F4xx_HAL_Driver/Src/stm32f4xx_hal_i2s_ex.c **** }
 913:Drivers/STM32F4xx_HAL_Driver/Src/stm32f4xx_hal_i2s_ex.c **** 
 914:Drivers/STM32F4xx_HAL_Driver/Src/stm32f4xx_hal_i2s_ex.c **** /**
 915:Drivers/STM32F4xx_HAL_Driver/Src/stm32f4xx_hal_i2s_ex.c ****   * @brief  DMA I2S communication error callback
 916:Drivers/STM32F4xx_HAL_Driver/Src/stm32f4xx_hal_i2s_ex.c ****   * @param  hdma DMA handle
 917:Drivers/STM32F4xx_HAL_Driver/Src/stm32f4xx_hal_i2s_ex.c ****   * @retval None
 918:Drivers/STM32F4xx_HAL_Driver/Src/stm32f4xx_hal_i2s_ex.c ****   */
 919:Drivers/STM32F4xx_HAL_Driver/Src/stm32f4xx_hal_i2s_ex.c **** static void I2SEx_TxRxDMAError(DMA_HandleTypeDef *hdma)
 920:Drivers/STM32F4xx_HAL_Driver/Src/stm32f4xx_hal_i2s_ex.c **** {
 921:Drivers/STM32F4xx_HAL_Driver/Src/stm32f4xx_hal_i2s_ex.c ****   I2S_HandleTypeDef *hi2s = (I2S_HandleTypeDef *)((DMA_HandleTypeDef *)hdma)->Parent;
 922:Drivers/STM32F4xx_HAL_Driver/Src/stm32f4xx_hal_i2s_ex.c **** 
 923:Drivers/STM32F4xx_HAL_Driver/Src/stm32f4xx_hal_i2s_ex.c ****   /* Disable Rx and Tx DMA Request */
 924:Drivers/STM32F4xx_HAL_Driver/Src/stm32f4xx_hal_i2s_ex.c ****   CLEAR_BIT(hi2s->Instance->CR2, (SPI_CR2_RXDMAEN | SPI_CR2_TXDMAEN));
 925:Drivers/STM32F4xx_HAL_Driver/Src/stm32f4xx_hal_i2s_ex.c ****   CLEAR_BIT(I2SxEXT(hi2s->Instance)->CR2, (SPI_CR2_RXDMAEN | SPI_CR2_TXDMAEN));
 926:Drivers/STM32F4xx_HAL_Driver/Src/stm32f4xx_hal_i2s_ex.c **** 
 927:Drivers/STM32F4xx_HAL_Driver/Src/stm32f4xx_hal_i2s_ex.c ****   hi2s->TxXferCount = 0U;
 928:Drivers/STM32F4xx_HAL_Driver/Src/stm32f4xx_hal_i2s_ex.c ****   hi2s->RxXferCount = 0U;
 929:Drivers/STM32F4xx_HAL_Driver/Src/stm32f4xx_hal_i2s_ex.c **** 
 930:Drivers/STM32F4xx_HAL_Driver/Src/stm32f4xx_hal_i2s_ex.c ****   hi2s->State = HAL_I2S_STATE_READY;
 931:Drivers/STM32F4xx_HAL_Driver/Src/stm32f4xx_hal_i2s_ex.c **** 
 932:Drivers/STM32F4xx_HAL_Driver/Src/stm32f4xx_hal_i2s_ex.c ****   /* Set the error code and execute error callback*/
 933:Drivers/STM32F4xx_HAL_Driver/Src/stm32f4xx_hal_i2s_ex.c ****   SET_BIT(hi2s->ErrorCode, HAL_I2S_ERROR_DMA);
 934:Drivers/STM32F4xx_HAL_Driver/Src/stm32f4xx_hal_i2s_ex.c ****   /* Call user error callback */
 935:Drivers/STM32F4xx_HAL_Driver/Src/stm32f4xx_hal_i2s_ex.c **** #if (USE_HAL_I2S_REGISTER_CALLBACKS == 1U)
 936:Drivers/STM32F4xx_HAL_Driver/Src/stm32f4xx_hal_i2s_ex.c ****   hi2s->ErrorCallback(hi2s);
 937:Drivers/STM32F4xx_HAL_Driver/Src/stm32f4xx_hal_i2s_ex.c **** #else
 938:Drivers/STM32F4xx_HAL_Driver/Src/stm32f4xx_hal_i2s_ex.c ****   HAL_I2S_ErrorCallback(hi2s);
 939:Drivers/STM32F4xx_HAL_Driver/Src/stm32f4xx_hal_i2s_ex.c **** #endif /* USE_HAL_I2S_REGISTER_CALLBACKS */
 940:Drivers/STM32F4xx_HAL_Driver/Src/stm32f4xx_hal_i2s_ex.c **** }
 941:Drivers/STM32F4xx_HAL_Driver/Src/stm32f4xx_hal_i2s_ex.c **** 
 942:Drivers/STM32F4xx_HAL_Driver/Src/stm32f4xx_hal_i2s_ex.c **** /**
ARM GAS  C:\Users\ridel\AppData\Local\Temp\ccOCejYh.s 			page 18


 943:Drivers/STM32F4xx_HAL_Driver/Src/stm32f4xx_hal_i2s_ex.c ****   * @brief  I2S Full-Duplex IT handler transmit function
 944:Drivers/STM32F4xx_HAL_Driver/Src/stm32f4xx_hal_i2s_ex.c ****   * @param  hi2s I2S handle
 945:Drivers/STM32F4xx_HAL_Driver/Src/stm32f4xx_hal_i2s_ex.c ****   * @retval None
 946:Drivers/STM32F4xx_HAL_Driver/Src/stm32f4xx_hal_i2s_ex.c ****   */
 947:Drivers/STM32F4xx_HAL_Driver/Src/stm32f4xx_hal_i2s_ex.c **** static void I2SEx_TxISR_I2S(I2S_HandleTypeDef *hi2s)
 948:Drivers/STM32F4xx_HAL_Driver/Src/stm32f4xx_hal_i2s_ex.c **** {
 949:Drivers/STM32F4xx_HAL_Driver/Src/stm32f4xx_hal_i2s_ex.c ****   /* Write Data on DR register */
 950:Drivers/STM32F4xx_HAL_Driver/Src/stm32f4xx_hal_i2s_ex.c ****   hi2s->Instance->DR = (*hi2s->pTxBuffPtr++);
 951:Drivers/STM32F4xx_HAL_Driver/Src/stm32f4xx_hal_i2s_ex.c ****   hi2s->TxXferCount--;
 952:Drivers/STM32F4xx_HAL_Driver/Src/stm32f4xx_hal_i2s_ex.c **** 
 953:Drivers/STM32F4xx_HAL_Driver/Src/stm32f4xx_hal_i2s_ex.c ****   if (hi2s->TxXferCount == 0U)
 954:Drivers/STM32F4xx_HAL_Driver/Src/stm32f4xx_hal_i2s_ex.c ****   {
 955:Drivers/STM32F4xx_HAL_Driver/Src/stm32f4xx_hal_i2s_ex.c ****     /* Disable TXE and ERR interrupt */
 956:Drivers/STM32F4xx_HAL_Driver/Src/stm32f4xx_hal_i2s_ex.c ****     __HAL_I2S_DISABLE_IT(hi2s, (I2S_IT_TXE | I2S_IT_ERR));
 957:Drivers/STM32F4xx_HAL_Driver/Src/stm32f4xx_hal_i2s_ex.c **** 
 958:Drivers/STM32F4xx_HAL_Driver/Src/stm32f4xx_hal_i2s_ex.c ****     if (hi2s->RxXferCount == 0U)
 959:Drivers/STM32F4xx_HAL_Driver/Src/stm32f4xx_hal_i2s_ex.c ****     {
 960:Drivers/STM32F4xx_HAL_Driver/Src/stm32f4xx_hal_i2s_ex.c ****       hi2s->State = HAL_I2S_STATE_READY;
 961:Drivers/STM32F4xx_HAL_Driver/Src/stm32f4xx_hal_i2s_ex.c ****       /* Call user TxRx complete callback */
 962:Drivers/STM32F4xx_HAL_Driver/Src/stm32f4xx_hal_i2s_ex.c **** #if (USE_HAL_I2S_REGISTER_CALLBACKS == 1U)
 963:Drivers/STM32F4xx_HAL_Driver/Src/stm32f4xx_hal_i2s_ex.c ****       hi2s->TxRxCpltCallback(hi2s);
 964:Drivers/STM32F4xx_HAL_Driver/Src/stm32f4xx_hal_i2s_ex.c **** #else
 965:Drivers/STM32F4xx_HAL_Driver/Src/stm32f4xx_hal_i2s_ex.c ****       HAL_I2SEx_TxRxCpltCallback(hi2s);
 966:Drivers/STM32F4xx_HAL_Driver/Src/stm32f4xx_hal_i2s_ex.c **** #endif /* USE_HAL_I2S_REGISTER_CALLBACKS */
 967:Drivers/STM32F4xx_HAL_Driver/Src/stm32f4xx_hal_i2s_ex.c ****     }
 968:Drivers/STM32F4xx_HAL_Driver/Src/stm32f4xx_hal_i2s_ex.c ****   }
 969:Drivers/STM32F4xx_HAL_Driver/Src/stm32f4xx_hal_i2s_ex.c **** }
 970:Drivers/STM32F4xx_HAL_Driver/Src/stm32f4xx_hal_i2s_ex.c **** 
 971:Drivers/STM32F4xx_HAL_Driver/Src/stm32f4xx_hal_i2s_ex.c **** /**
 972:Drivers/STM32F4xx_HAL_Driver/Src/stm32f4xx_hal_i2s_ex.c ****   * @brief  I2SExt Full-Duplex IT handler transmit function
 973:Drivers/STM32F4xx_HAL_Driver/Src/stm32f4xx_hal_i2s_ex.c ****   * @param  hi2s I2S handle
 974:Drivers/STM32F4xx_HAL_Driver/Src/stm32f4xx_hal_i2s_ex.c ****   * @retval None
 975:Drivers/STM32F4xx_HAL_Driver/Src/stm32f4xx_hal_i2s_ex.c ****   */
 976:Drivers/STM32F4xx_HAL_Driver/Src/stm32f4xx_hal_i2s_ex.c **** static void I2SEx_TxISR_I2SExt(I2S_HandleTypeDef *hi2s)
 977:Drivers/STM32F4xx_HAL_Driver/Src/stm32f4xx_hal_i2s_ex.c **** {
 978:Drivers/STM32F4xx_HAL_Driver/Src/stm32f4xx_hal_i2s_ex.c ****   /* Write Data on DR register */
 979:Drivers/STM32F4xx_HAL_Driver/Src/stm32f4xx_hal_i2s_ex.c ****   I2SxEXT(hi2s->Instance)->DR = (*hi2s->pTxBuffPtr++);
 980:Drivers/STM32F4xx_HAL_Driver/Src/stm32f4xx_hal_i2s_ex.c ****   hi2s->TxXferCount--;
 981:Drivers/STM32F4xx_HAL_Driver/Src/stm32f4xx_hal_i2s_ex.c **** 
 982:Drivers/STM32F4xx_HAL_Driver/Src/stm32f4xx_hal_i2s_ex.c ****   if (hi2s->TxXferCount == 0U)
 983:Drivers/STM32F4xx_HAL_Driver/Src/stm32f4xx_hal_i2s_ex.c ****   {
 984:Drivers/STM32F4xx_HAL_Driver/Src/stm32f4xx_hal_i2s_ex.c ****     /* Disable I2Sext TXE and ERR interrupt */
 985:Drivers/STM32F4xx_HAL_Driver/Src/stm32f4xx_hal_i2s_ex.c ****     __HAL_I2SEXT_DISABLE_IT(hi2s, (I2S_IT_TXE | I2S_IT_ERR));
 986:Drivers/STM32F4xx_HAL_Driver/Src/stm32f4xx_hal_i2s_ex.c **** 
 987:Drivers/STM32F4xx_HAL_Driver/Src/stm32f4xx_hal_i2s_ex.c ****     if (hi2s->RxXferCount == 0U)
 988:Drivers/STM32F4xx_HAL_Driver/Src/stm32f4xx_hal_i2s_ex.c ****     {
 989:Drivers/STM32F4xx_HAL_Driver/Src/stm32f4xx_hal_i2s_ex.c ****       hi2s->State = HAL_I2S_STATE_READY;
 990:Drivers/STM32F4xx_HAL_Driver/Src/stm32f4xx_hal_i2s_ex.c ****       /* Call user TxRx complete callback */
 991:Drivers/STM32F4xx_HAL_Driver/Src/stm32f4xx_hal_i2s_ex.c **** #if (USE_HAL_I2S_REGISTER_CALLBACKS == 1U)
 992:Drivers/STM32F4xx_HAL_Driver/Src/stm32f4xx_hal_i2s_ex.c ****       hi2s->TxRxCpltCallback(hi2s);
 993:Drivers/STM32F4xx_HAL_Driver/Src/stm32f4xx_hal_i2s_ex.c **** #else
 994:Drivers/STM32F4xx_HAL_Driver/Src/stm32f4xx_hal_i2s_ex.c ****       HAL_I2SEx_TxRxCpltCallback(hi2s);
 995:Drivers/STM32F4xx_HAL_Driver/Src/stm32f4xx_hal_i2s_ex.c **** #endif /* USE_HAL_I2S_REGISTER_CALLBACKS */
 996:Drivers/STM32F4xx_HAL_Driver/Src/stm32f4xx_hal_i2s_ex.c ****     }
 997:Drivers/STM32F4xx_HAL_Driver/Src/stm32f4xx_hal_i2s_ex.c ****   }
 998:Drivers/STM32F4xx_HAL_Driver/Src/stm32f4xx_hal_i2s_ex.c **** }
 999:Drivers/STM32F4xx_HAL_Driver/Src/stm32f4xx_hal_i2s_ex.c **** 
ARM GAS  C:\Users\ridel\AppData\Local\Temp\ccOCejYh.s 			page 19


1000:Drivers/STM32F4xx_HAL_Driver/Src/stm32f4xx_hal_i2s_ex.c **** /**
1001:Drivers/STM32F4xx_HAL_Driver/Src/stm32f4xx_hal_i2s_ex.c ****   * @brief  I2S Full-Duplex IT handler receive function
1002:Drivers/STM32F4xx_HAL_Driver/Src/stm32f4xx_hal_i2s_ex.c ****   * @param  hi2s I2S handle
1003:Drivers/STM32F4xx_HAL_Driver/Src/stm32f4xx_hal_i2s_ex.c ****   * @retval None
1004:Drivers/STM32F4xx_HAL_Driver/Src/stm32f4xx_hal_i2s_ex.c ****   */
1005:Drivers/STM32F4xx_HAL_Driver/Src/stm32f4xx_hal_i2s_ex.c **** static void I2SEx_RxISR_I2S(I2S_HandleTypeDef *hi2s)
1006:Drivers/STM32F4xx_HAL_Driver/Src/stm32f4xx_hal_i2s_ex.c **** {
1007:Drivers/STM32F4xx_HAL_Driver/Src/stm32f4xx_hal_i2s_ex.c ****   /* Read Data from DR register */
1008:Drivers/STM32F4xx_HAL_Driver/Src/stm32f4xx_hal_i2s_ex.c ****   (*hi2s->pRxBuffPtr++) = hi2s->Instance->DR;
1009:Drivers/STM32F4xx_HAL_Driver/Src/stm32f4xx_hal_i2s_ex.c ****   hi2s->RxXferCount--;
1010:Drivers/STM32F4xx_HAL_Driver/Src/stm32f4xx_hal_i2s_ex.c **** 
1011:Drivers/STM32F4xx_HAL_Driver/Src/stm32f4xx_hal_i2s_ex.c ****   if (hi2s->RxXferCount == 0U)
1012:Drivers/STM32F4xx_HAL_Driver/Src/stm32f4xx_hal_i2s_ex.c ****   {
1013:Drivers/STM32F4xx_HAL_Driver/Src/stm32f4xx_hal_i2s_ex.c ****     /* Disable RXNE and ERR interrupt */
1014:Drivers/STM32F4xx_HAL_Driver/Src/stm32f4xx_hal_i2s_ex.c ****     __HAL_I2S_DISABLE_IT(hi2s, (I2S_IT_RXNE | I2S_IT_ERR));
1015:Drivers/STM32F4xx_HAL_Driver/Src/stm32f4xx_hal_i2s_ex.c **** 
1016:Drivers/STM32F4xx_HAL_Driver/Src/stm32f4xx_hal_i2s_ex.c ****     if (hi2s->TxXferCount == 0U)
1017:Drivers/STM32F4xx_HAL_Driver/Src/stm32f4xx_hal_i2s_ex.c ****     {
1018:Drivers/STM32F4xx_HAL_Driver/Src/stm32f4xx_hal_i2s_ex.c ****       hi2s->State = HAL_I2S_STATE_READY;
1019:Drivers/STM32F4xx_HAL_Driver/Src/stm32f4xx_hal_i2s_ex.c ****       /* Call user TxRx complete callback */
1020:Drivers/STM32F4xx_HAL_Driver/Src/stm32f4xx_hal_i2s_ex.c **** #if (USE_HAL_I2S_REGISTER_CALLBACKS == 1U)
1021:Drivers/STM32F4xx_HAL_Driver/Src/stm32f4xx_hal_i2s_ex.c ****       hi2s->TxRxCpltCallback(hi2s);
1022:Drivers/STM32F4xx_HAL_Driver/Src/stm32f4xx_hal_i2s_ex.c **** #else
1023:Drivers/STM32F4xx_HAL_Driver/Src/stm32f4xx_hal_i2s_ex.c ****       HAL_I2SEx_TxRxCpltCallback(hi2s);
1024:Drivers/STM32F4xx_HAL_Driver/Src/stm32f4xx_hal_i2s_ex.c **** #endif /* USE_HAL_I2S_REGISTER_CALLBACKS */
1025:Drivers/STM32F4xx_HAL_Driver/Src/stm32f4xx_hal_i2s_ex.c ****     }
1026:Drivers/STM32F4xx_HAL_Driver/Src/stm32f4xx_hal_i2s_ex.c ****   }
1027:Drivers/STM32F4xx_HAL_Driver/Src/stm32f4xx_hal_i2s_ex.c **** }
1028:Drivers/STM32F4xx_HAL_Driver/Src/stm32f4xx_hal_i2s_ex.c **** 
1029:Drivers/STM32F4xx_HAL_Driver/Src/stm32f4xx_hal_i2s_ex.c **** /**
1030:Drivers/STM32F4xx_HAL_Driver/Src/stm32f4xx_hal_i2s_ex.c ****   * @brief  I2SExt Full-Duplex IT handler receive function
1031:Drivers/STM32F4xx_HAL_Driver/Src/stm32f4xx_hal_i2s_ex.c ****   * @param  hi2s I2S handle
1032:Drivers/STM32F4xx_HAL_Driver/Src/stm32f4xx_hal_i2s_ex.c ****   * @retval None
1033:Drivers/STM32F4xx_HAL_Driver/Src/stm32f4xx_hal_i2s_ex.c ****   */
1034:Drivers/STM32F4xx_HAL_Driver/Src/stm32f4xx_hal_i2s_ex.c **** static void I2SEx_RxISR_I2SExt(I2S_HandleTypeDef *hi2s)
1035:Drivers/STM32F4xx_HAL_Driver/Src/stm32f4xx_hal_i2s_ex.c **** {
1036:Drivers/STM32F4xx_HAL_Driver/Src/stm32f4xx_hal_i2s_ex.c ****   /* Read Data from DR register */
1037:Drivers/STM32F4xx_HAL_Driver/Src/stm32f4xx_hal_i2s_ex.c ****   (*hi2s->pRxBuffPtr++) = I2SxEXT(hi2s->Instance)->DR;
1038:Drivers/STM32F4xx_HAL_Driver/Src/stm32f4xx_hal_i2s_ex.c ****   hi2s->RxXferCount--;
1039:Drivers/STM32F4xx_HAL_Driver/Src/stm32f4xx_hal_i2s_ex.c **** 
1040:Drivers/STM32F4xx_HAL_Driver/Src/stm32f4xx_hal_i2s_ex.c ****   if (hi2s->RxXferCount == 0U)
1041:Drivers/STM32F4xx_HAL_Driver/Src/stm32f4xx_hal_i2s_ex.c ****   {
1042:Drivers/STM32F4xx_HAL_Driver/Src/stm32f4xx_hal_i2s_ex.c ****     /* Disable I2Sext RXNE and ERR interrupt */
1043:Drivers/STM32F4xx_HAL_Driver/Src/stm32f4xx_hal_i2s_ex.c ****     __HAL_I2SEXT_DISABLE_IT(hi2s, (I2S_IT_RXNE | I2S_IT_ERR));
1044:Drivers/STM32F4xx_HAL_Driver/Src/stm32f4xx_hal_i2s_ex.c **** 
1045:Drivers/STM32F4xx_HAL_Driver/Src/stm32f4xx_hal_i2s_ex.c ****     if (hi2s->TxXferCount == 0U)
1046:Drivers/STM32F4xx_HAL_Driver/Src/stm32f4xx_hal_i2s_ex.c ****     {
1047:Drivers/STM32F4xx_HAL_Driver/Src/stm32f4xx_hal_i2s_ex.c ****       hi2s->State = HAL_I2S_STATE_READY;
1048:Drivers/STM32F4xx_HAL_Driver/Src/stm32f4xx_hal_i2s_ex.c ****       /* Call user TxRx complete callback */
1049:Drivers/STM32F4xx_HAL_Driver/Src/stm32f4xx_hal_i2s_ex.c **** #if (USE_HAL_I2S_REGISTER_CALLBACKS == 1U)
1050:Drivers/STM32F4xx_HAL_Driver/Src/stm32f4xx_hal_i2s_ex.c ****       hi2s->TxRxCpltCallback(hi2s);
1051:Drivers/STM32F4xx_HAL_Driver/Src/stm32f4xx_hal_i2s_ex.c **** #else
1052:Drivers/STM32F4xx_HAL_Driver/Src/stm32f4xx_hal_i2s_ex.c ****       HAL_I2SEx_TxRxCpltCallback(hi2s);
1053:Drivers/STM32F4xx_HAL_Driver/Src/stm32f4xx_hal_i2s_ex.c **** #endif /* USE_HAL_I2S_REGISTER_CALLBACKS */
1054:Drivers/STM32F4xx_HAL_Driver/Src/stm32f4xx_hal_i2s_ex.c ****     }
1055:Drivers/STM32F4xx_HAL_Driver/Src/stm32f4xx_hal_i2s_ex.c ****   }
1056:Drivers/STM32F4xx_HAL_Driver/Src/stm32f4xx_hal_i2s_ex.c **** }
ARM GAS  C:\Users\ridel\AppData\Local\Temp\ccOCejYh.s 			page 20


1057:Drivers/STM32F4xx_HAL_Driver/Src/stm32f4xx_hal_i2s_ex.c **** 
1058:Drivers/STM32F4xx_HAL_Driver/Src/stm32f4xx_hal_i2s_ex.c **** /**
1059:Drivers/STM32F4xx_HAL_Driver/Src/stm32f4xx_hal_i2s_ex.c ****   * @brief This function handles I2S Communication Timeout.
1060:Drivers/STM32F4xx_HAL_Driver/Src/stm32f4xx_hal_i2s_ex.c ****   * @param hi2s I2S handle
1061:Drivers/STM32F4xx_HAL_Driver/Src/stm32f4xx_hal_i2s_ex.c ****   * @param Flag Flag checked
1062:Drivers/STM32F4xx_HAL_Driver/Src/stm32f4xx_hal_i2s_ex.c ****   * @param State Value of the flag expected
1063:Drivers/STM32F4xx_HAL_Driver/Src/stm32f4xx_hal_i2s_ex.c ****   * @param Timeout Duration of the timeout
1064:Drivers/STM32F4xx_HAL_Driver/Src/stm32f4xx_hal_i2s_ex.c ****   * @param i2sUsed I2S instance reference
1065:Drivers/STM32F4xx_HAL_Driver/Src/stm32f4xx_hal_i2s_ex.c ****   * @retval HAL status
1066:Drivers/STM32F4xx_HAL_Driver/Src/stm32f4xx_hal_i2s_ex.c ****   */
1067:Drivers/STM32F4xx_HAL_Driver/Src/stm32f4xx_hal_i2s_ex.c **** static HAL_StatusTypeDef I2SEx_FullDuplexWaitFlagStateUntilTimeout(I2S_HandleTypeDef *hi2s,
1068:Drivers/STM32F4xx_HAL_Driver/Src/stm32f4xx_hal_i2s_ex.c ****                                                                    uint32_t Flag,
1069:Drivers/STM32F4xx_HAL_Driver/Src/stm32f4xx_hal_i2s_ex.c ****                                                                    uint32_t State,
1070:Drivers/STM32F4xx_HAL_Driver/Src/stm32f4xx_hal_i2s_ex.c ****                                                                    uint32_t Timeout,
1071:Drivers/STM32F4xx_HAL_Driver/Src/stm32f4xx_hal_i2s_ex.c ****                                                                    I2S_UseTypeDef i2sUsed)
1072:Drivers/STM32F4xx_HAL_Driver/Src/stm32f4xx_hal_i2s_ex.c **** {
  29              		.loc 1 1072 1 view -0
  30              		.cfi_startproc
  31              		@ args = 4, pretend = 0, frame = 0
  32              		@ frame_needed = 0, uses_anonymous_args = 0
  33              		.loc 1 1072 1 is_stmt 0 view .LVU1
  34 0000 2DE9F843 		push	{r3, r4, r5, r6, r7, r8, r9, lr}
  35              	.LCFI0:
  36              		.cfi_def_cfa_offset 32
  37              		.cfi_offset 3, -32
  38              		.cfi_offset 4, -28
  39              		.cfi_offset 5, -24
  40              		.cfi_offset 6, -20
  41              		.cfi_offset 7, -16
  42              		.cfi_offset 8, -12
  43              		.cfi_offset 9, -8
  44              		.cfi_offset 14, -4
  45 0004 0546     		mov	r5, r0
  46 0006 0E46     		mov	r6, r1
  47 0008 1746     		mov	r7, r2
  48 000a 1C46     		mov	r4, r3
  49 000c 9DF82090 		ldrb	r9, [sp, #32]	@ zero_extendqisi2
1073:Drivers/STM32F4xx_HAL_Driver/Src/stm32f4xx_hal_i2s_ex.c ****   uint32_t tickstart = HAL_GetTick();
  50              		.loc 1 1073 3 is_stmt 1 view .LVU2
  51              		.loc 1 1073 24 is_stmt 0 view .LVU3
  52 0010 FFF7FEFF 		bl	HAL_GetTick
  53              	.LVL1:
  54              		.loc 1 1073 24 view .LVU4
  55 0014 8046     		mov	r8, r0
  56              	.LVL2:
1074:Drivers/STM32F4xx_HAL_Driver/Src/stm32f4xx_hal_i2s_ex.c **** 
1075:Drivers/STM32F4xx_HAL_Driver/Src/stm32f4xx_hal_i2s_ex.c ****   if (i2sUsed == I2S_USE_I2S)
  57              		.loc 1 1075 3 is_stmt 1 view .LVU5
  58              		.loc 1 1075 6 is_stmt 0 view .LVU6
  59 0016 B9F1000F 		cmp	r9, #0
  60 001a 15D0     		beq	.L4
  61 001c 36E0     		b	.L9
  62              	.LVL3:
  63              	.L19:
1076:Drivers/STM32F4xx_HAL_Driver/Src/stm32f4xx_hal_i2s_ex.c ****   {
1077:Drivers/STM32F4xx_HAL_Driver/Src/stm32f4xx_hal_i2s_ex.c ****     /* Wait until flag is reset */
1078:Drivers/STM32F4xx_HAL_Driver/Src/stm32f4xx_hal_i2s_ex.c ****     while (((__HAL_I2S_GET_FLAG(hi2s, Flag)) ? SET : RESET) != State)
ARM GAS  C:\Users\ridel\AppData\Local\Temp\ccOCejYh.s 			page 21


1079:Drivers/STM32F4xx_HAL_Driver/Src/stm32f4xx_hal_i2s_ex.c ****     {
1080:Drivers/STM32F4xx_HAL_Driver/Src/stm32f4xx_hal_i2s_ex.c ****       if (Timeout != HAL_MAX_DELAY)
1081:Drivers/STM32F4xx_HAL_Driver/Src/stm32f4xx_hal_i2s_ex.c ****       {
1082:Drivers/STM32F4xx_HAL_Driver/Src/stm32f4xx_hal_i2s_ex.c ****         if ((Timeout == 0U) || ((HAL_GetTick() - tickstart) > Timeout))
  64              		.loc 1 1082 9 is_stmt 1 view .LVU7
  65              		.loc 1 1082 12 is_stmt 0 view .LVU8
  66 001e 2CB1     		cbz	r4, .L5
  67              		.loc 1 1082 34 discriminator 1 view .LVU9
  68 0020 FFF7FEFF 		bl	HAL_GetTick
  69              	.LVL4:
  70              		.loc 1 1082 48 discriminator 1 view .LVU10
  71 0024 A0EB0800 		sub	r0, r0, r8
  72              		.loc 1 1082 29 discriminator 1 view .LVU11
  73 0028 A042     		cmp	r0, r4
  74 002a 0DD9     		bls	.L4
  75              	.L5:
1083:Drivers/STM32F4xx_HAL_Driver/Src/stm32f4xx_hal_i2s_ex.c ****         {
1084:Drivers/STM32F4xx_HAL_Driver/Src/stm32f4xx_hal_i2s_ex.c ****           /* Set the I2S State ready */
1085:Drivers/STM32F4xx_HAL_Driver/Src/stm32f4xx_hal_i2s_ex.c ****           hi2s->State = HAL_I2S_STATE_READY;
  76              		.loc 1 1085 11 is_stmt 1 view .LVU12
  77              		.loc 1 1085 23 is_stmt 0 view .LVU13
  78 002c 0123     		movs	r3, #1
  79 002e 85F84130 		strb	r3, [r5, #65]
1086:Drivers/STM32F4xx_HAL_Driver/Src/stm32f4xx_hal_i2s_ex.c **** 
1087:Drivers/STM32F4xx_HAL_Driver/Src/stm32f4xx_hal_i2s_ex.c ****           /* Process Unlocked */
1088:Drivers/STM32F4xx_HAL_Driver/Src/stm32f4xx_hal_i2s_ex.c ****           __HAL_UNLOCK(hi2s);
  80              		.loc 1 1088 11 is_stmt 1 view .LVU14
  81              		.loc 1 1088 11 view .LVU15
  82 0032 0023     		movs	r3, #0
  83 0034 85F84030 		strb	r3, [r5, #64]
  84              		.loc 1 1088 11 view .LVU16
1089:Drivers/STM32F4xx_HAL_Driver/Src/stm32f4xx_hal_i2s_ex.c **** 
1090:Drivers/STM32F4xx_HAL_Driver/Src/stm32f4xx_hal_i2s_ex.c ****           return HAL_TIMEOUT;
  85              		.loc 1 1090 11 view .LVU17
  86              		.loc 1 1090 18 is_stmt 0 view .LVU18
  87 0038 0320     		movs	r0, #3
  88 003a 0DE0     		b	.L6
  89              	.L20:
1078:Drivers/STM32F4xx_HAL_Driver/Src/stm32f4xx_hal_i2s_ex.c ****     {
  90              		.loc 1 1078 52 view .LVU19
  91 003c 0123     		movs	r3, #1
  92              	.L7:
1078:Drivers/STM32F4xx_HAL_Driver/Src/stm32f4xx_hal_i2s_ex.c ****     {
  93              		.loc 1 1078 11 discriminator 4 view .LVU20
  94 003e BB42     		cmp	r3, r7
  95 0040 09D0     		beq	.L18
1080:Drivers/STM32F4xx_HAL_Driver/Src/stm32f4xx_hal_i2s_ex.c ****       {
  96              		.loc 1 1080 7 is_stmt 1 view .LVU21
1080:Drivers/STM32F4xx_HAL_Driver/Src/stm32f4xx_hal_i2s_ex.c ****       {
  97              		.loc 1 1080 10 is_stmt 0 view .LVU22
  98 0042 B4F1FF3F 		cmp	r4, #-1
  99 0046 EAD1     		bne	.L19
 100              	.L4:
1078:Drivers/STM32F4xx_HAL_Driver/Src/stm32f4xx_hal_i2s_ex.c ****     {
 101              		.loc 1 1078 11 is_stmt 1 view .LVU23
1078:Drivers/STM32F4xx_HAL_Driver/Src/stm32f4xx_hal_i2s_ex.c ****     {
 102              		.loc 1 1078 14 is_stmt 0 view .LVU24
ARM GAS  C:\Users\ridel\AppData\Local\Temp\ccOCejYh.s 			page 22


 103 0048 2B68     		ldr	r3, [r5]
 104 004a 9B68     		ldr	r3, [r3, #8]
1078:Drivers/STM32F4xx_HAL_Driver/Src/stm32f4xx_hal_i2s_ex.c ****     {
 105              		.loc 1 1078 52 view .LVU25
 106 004c 36EA0303 		bics	r3, r6, r3
 107 0050 F4D0     		beq	.L20
 108 0052 0023     		movs	r3, #0
 109 0054 F3E7     		b	.L7
 110              	.L18:
1091:Drivers/STM32F4xx_HAL_Driver/Src/stm32f4xx_hal_i2s_ex.c ****         }
1092:Drivers/STM32F4xx_HAL_Driver/Src/stm32f4xx_hal_i2s_ex.c ****       }
1093:Drivers/STM32F4xx_HAL_Driver/Src/stm32f4xx_hal_i2s_ex.c ****     }
1094:Drivers/STM32F4xx_HAL_Driver/Src/stm32f4xx_hal_i2s_ex.c ****   }
1095:Drivers/STM32F4xx_HAL_Driver/Src/stm32f4xx_hal_i2s_ex.c ****   else /* i2sUsed == I2S_USE_I2SEXT */
1096:Drivers/STM32F4xx_HAL_Driver/Src/stm32f4xx_hal_i2s_ex.c ****   {
1097:Drivers/STM32F4xx_HAL_Driver/Src/stm32f4xx_hal_i2s_ex.c ****     /* Wait until flag is reset */
1098:Drivers/STM32F4xx_HAL_Driver/Src/stm32f4xx_hal_i2s_ex.c ****     while (((__HAL_I2SEXT_GET_FLAG(hi2s, Flag)) ? SET : RESET) != State)
1099:Drivers/STM32F4xx_HAL_Driver/Src/stm32f4xx_hal_i2s_ex.c ****     {
1100:Drivers/STM32F4xx_HAL_Driver/Src/stm32f4xx_hal_i2s_ex.c ****       if (Timeout != HAL_MAX_DELAY)
1101:Drivers/STM32F4xx_HAL_Driver/Src/stm32f4xx_hal_i2s_ex.c ****       {
1102:Drivers/STM32F4xx_HAL_Driver/Src/stm32f4xx_hal_i2s_ex.c ****         if ((Timeout == 0U) || ((HAL_GetTick() - tickstart) > Timeout))
1103:Drivers/STM32F4xx_HAL_Driver/Src/stm32f4xx_hal_i2s_ex.c ****         {
1104:Drivers/STM32F4xx_HAL_Driver/Src/stm32f4xx_hal_i2s_ex.c ****           /* Set the I2S State ready */
1105:Drivers/STM32F4xx_HAL_Driver/Src/stm32f4xx_hal_i2s_ex.c ****           hi2s->State = HAL_I2S_STATE_READY;
1106:Drivers/STM32F4xx_HAL_Driver/Src/stm32f4xx_hal_i2s_ex.c **** 
1107:Drivers/STM32F4xx_HAL_Driver/Src/stm32f4xx_hal_i2s_ex.c ****           /* Process Unlocked */
1108:Drivers/STM32F4xx_HAL_Driver/Src/stm32f4xx_hal_i2s_ex.c ****           __HAL_UNLOCK(hi2s);
1109:Drivers/STM32F4xx_HAL_Driver/Src/stm32f4xx_hal_i2s_ex.c **** 
1110:Drivers/STM32F4xx_HAL_Driver/Src/stm32f4xx_hal_i2s_ex.c ****           return HAL_TIMEOUT;
1111:Drivers/STM32F4xx_HAL_Driver/Src/stm32f4xx_hal_i2s_ex.c ****         }
1112:Drivers/STM32F4xx_HAL_Driver/Src/stm32f4xx_hal_i2s_ex.c ****       }
1113:Drivers/STM32F4xx_HAL_Driver/Src/stm32f4xx_hal_i2s_ex.c ****     }
1114:Drivers/STM32F4xx_HAL_Driver/Src/stm32f4xx_hal_i2s_ex.c ****   }
1115:Drivers/STM32F4xx_HAL_Driver/Src/stm32f4xx_hal_i2s_ex.c ****   return HAL_OK;
 111              		.loc 1 1115 10 view .LVU26
 112 0056 4846     		mov	r0, r9
 113              	.L6:
1116:Drivers/STM32F4xx_HAL_Driver/Src/stm32f4xx_hal_i2s_ex.c **** }
 114              		.loc 1 1116 1 view .LVU27
 115 0058 BDE8F883 		pop	{r3, r4, r5, r6, r7, r8, r9, pc}
 116              	.LVL5:
 117              	.L22:
1102:Drivers/STM32F4xx_HAL_Driver/Src/stm32f4xx_hal_i2s_ex.c ****         {
 118              		.loc 1 1102 9 is_stmt 1 view .LVU28
1102:Drivers/STM32F4xx_HAL_Driver/Src/stm32f4xx_hal_i2s_ex.c ****         {
 119              		.loc 1 1102 12 is_stmt 0 view .LVU29
 120 005c 2CB1     		cbz	r4, .L10
1102:Drivers/STM32F4xx_HAL_Driver/Src/stm32f4xx_hal_i2s_ex.c ****         {
 121              		.loc 1 1102 34 discriminator 1 view .LVU30
 122 005e FFF7FEFF 		bl	HAL_GetTick
 123              	.LVL6:
1102:Drivers/STM32F4xx_HAL_Driver/Src/stm32f4xx_hal_i2s_ex.c ****         {
 124              		.loc 1 1102 48 discriminator 1 view .LVU31
 125 0062 A0EB0800 		sub	r0, r0, r8
1102:Drivers/STM32F4xx_HAL_Driver/Src/stm32f4xx_hal_i2s_ex.c ****         {
 126              		.loc 1 1102 29 discriminator 1 view .LVU32
 127 0066 A042     		cmp	r0, r4
ARM GAS  C:\Users\ridel\AppData\Local\Temp\ccOCejYh.s 			page 23


 128 0068 10D9     		bls	.L9
 129              	.L10:
1105:Drivers/STM32F4xx_HAL_Driver/Src/stm32f4xx_hal_i2s_ex.c **** 
 130              		.loc 1 1105 11 is_stmt 1 view .LVU33
1105:Drivers/STM32F4xx_HAL_Driver/Src/stm32f4xx_hal_i2s_ex.c **** 
 131              		.loc 1 1105 23 is_stmt 0 view .LVU34
 132 006a 0123     		movs	r3, #1
 133 006c 85F84130 		strb	r3, [r5, #65]
1108:Drivers/STM32F4xx_HAL_Driver/Src/stm32f4xx_hal_i2s_ex.c **** 
 134              		.loc 1 1108 11 is_stmt 1 view .LVU35
1108:Drivers/STM32F4xx_HAL_Driver/Src/stm32f4xx_hal_i2s_ex.c **** 
 135              		.loc 1 1108 11 view .LVU36
 136 0070 0023     		movs	r3, #0
 137 0072 85F84030 		strb	r3, [r5, #64]
1108:Drivers/STM32F4xx_HAL_Driver/Src/stm32f4xx_hal_i2s_ex.c **** 
 138              		.loc 1 1108 11 view .LVU37
1110:Drivers/STM32F4xx_HAL_Driver/Src/stm32f4xx_hal_i2s_ex.c ****         }
 139              		.loc 1 1110 11 view .LVU38
1110:Drivers/STM32F4xx_HAL_Driver/Src/stm32f4xx_hal_i2s_ex.c ****         }
 140              		.loc 1 1110 18 is_stmt 0 view .LVU39
 141 0076 0320     		movs	r0, #3
 142 0078 EEE7     		b	.L6
 143              	.L23:
1098:Drivers/STM32F4xx_HAL_Driver/Src/stm32f4xx_hal_i2s_ex.c ****     {
 144              		.loc 1 1098 14 view .LVU40
 145 007a A3F58063 		sub	r3, r3, #1024
 146 007e 0BE0     		b	.L11
 147              	.L24:
1098:Drivers/STM32F4xx_HAL_Driver/Src/stm32f4xx_hal_i2s_ex.c ****     {
 148              		.loc 1 1098 55 view .LVU41
 149 0080 0123     		movs	r3, #1
 150              	.L12:
1098:Drivers/STM32F4xx_HAL_Driver/Src/stm32f4xx_hal_i2s_ex.c ****     {
 151              		.loc 1 1098 11 discriminator 8 view .LVU42
 152 0082 BB42     		cmp	r3, r7
 153 0084 0ED0     		beq	.L21
1100:Drivers/STM32F4xx_HAL_Driver/Src/stm32f4xx_hal_i2s_ex.c ****       {
 154              		.loc 1 1100 7 is_stmt 1 view .LVU43
1100:Drivers/STM32F4xx_HAL_Driver/Src/stm32f4xx_hal_i2s_ex.c ****       {
 155              		.loc 1 1100 10 is_stmt 0 view .LVU44
 156 0086 B4F1FF3F 		cmp	r4, #-1
 157 008a E7D1     		bne	.L22
 158              	.L9:
1098:Drivers/STM32F4xx_HAL_Driver/Src/stm32f4xx_hal_i2s_ex.c ****     {
 159              		.loc 1 1098 11 is_stmt 1 view .LVU45
1098:Drivers/STM32F4xx_HAL_Driver/Src/stm32f4xx_hal_i2s_ex.c ****     {
 160              		.loc 1 1098 14 is_stmt 0 view .LVU46
 161 008c 2A68     		ldr	r2, [r5]
 162 008e 064B     		ldr	r3, .L25
 163 0090 9A42     		cmp	r2, r3
 164 0092 F2D0     		beq	.L23
 165 0094 4FF04023 		mov	r3, #1073758208
 166              	.L11:
1098:Drivers/STM32F4xx_HAL_Driver/Src/stm32f4xx_hal_i2s_ex.c ****     {
 167              		.loc 1 1098 14 discriminator 4 view .LVU47
 168 0098 9B68     		ldr	r3, [r3, #8]
1098:Drivers/STM32F4xx_HAL_Driver/Src/stm32f4xx_hal_i2s_ex.c ****     {
ARM GAS  C:\Users\ridel\AppData\Local\Temp\ccOCejYh.s 			page 24


 169              		.loc 1 1098 55 discriminator 4 view .LVU48
 170 009a 36EA0303 		bics	r3, r6, r3
 171 009e EFD0     		beq	.L24
1098:Drivers/STM32F4xx_HAL_Driver/Src/stm32f4xx_hal_i2s_ex.c ****     {
 172              		.loc 1 1098 55 view .LVU49
 173 00a0 0023     		movs	r3, #0
 174 00a2 EEE7     		b	.L12
 175              	.L21:
1115:Drivers/STM32F4xx_HAL_Driver/Src/stm32f4xx_hal_i2s_ex.c **** }
 176              		.loc 1 1115 10 view .LVU50
 177 00a4 0020     		movs	r0, #0
 178 00a6 D7E7     		b	.L6
 179              	.L26:
 180              		.align	2
 181              	.L25:
 182 00a8 00380040 		.word	1073756160
 183              		.cfi_endproc
 184              	.LFE147:
 186              		.section	.text.I2SEx_TxRxDMAError,"ax",%progbits
 187              		.align	1
 188              		.syntax unified
 189              		.thumb
 190              		.thumb_func
 192              	I2SEx_TxRxDMAError:
 193              	.LVL7:
 194              	.LFB142:
 920:Drivers/STM32F4xx_HAL_Driver/Src/stm32f4xx_hal_i2s_ex.c ****   I2S_HandleTypeDef *hi2s = (I2S_HandleTypeDef *)((DMA_HandleTypeDef *)hdma)->Parent;
 195              		.loc 1 920 1 is_stmt 1 view -0
 196              		.cfi_startproc
 197              		@ args = 0, pretend = 0, frame = 0
 198              		@ frame_needed = 0, uses_anonymous_args = 0
 920:Drivers/STM32F4xx_HAL_Driver/Src/stm32f4xx_hal_i2s_ex.c ****   I2S_HandleTypeDef *hi2s = (I2S_HandleTypeDef *)((DMA_HandleTypeDef *)hdma)->Parent;
 199              		.loc 1 920 1 is_stmt 0 view .LVU52
 200 0000 08B5     		push	{r3, lr}
 201              	.LCFI1:
 202              		.cfi_def_cfa_offset 8
 203              		.cfi_offset 3, -8
 204              		.cfi_offset 14, -4
 921:Drivers/STM32F4xx_HAL_Driver/Src/stm32f4xx_hal_i2s_ex.c **** 
 205              		.loc 1 921 3 is_stmt 1 view .LVU53
 921:Drivers/STM32F4xx_HAL_Driver/Src/stm32f4xx_hal_i2s_ex.c **** 
 206              		.loc 1 921 22 is_stmt 0 view .LVU54
 207 0002 806B     		ldr	r0, [r0, #56]
 208              	.LVL8:
 924:Drivers/STM32F4xx_HAL_Driver/Src/stm32f4xx_hal_i2s_ex.c ****   CLEAR_BIT(I2SxEXT(hi2s->Instance)->CR2, (SPI_CR2_RXDMAEN | SPI_CR2_TXDMAEN));
 209              		.loc 1 924 3 is_stmt 1 view .LVU55
 210 0004 0268     		ldr	r2, [r0]
 211 0006 5368     		ldr	r3, [r2, #4]
 212 0008 23F00303 		bic	r3, r3, #3
 213 000c 5360     		str	r3, [r2, #4]
 925:Drivers/STM32F4xx_HAL_Driver/Src/stm32f4xx_hal_i2s_ex.c **** 
 214              		.loc 1 925 3 view .LVU56
 215 000e 0268     		ldr	r2, [r0]
 216 0010 0B4B     		ldr	r3, .L32
 217 0012 9A42     		cmp	r2, r3
 218 0014 12D0     		beq	.L31
 219 0016 4FF04022 		mov	r2, #1073758208
ARM GAS  C:\Users\ridel\AppData\Local\Temp\ccOCejYh.s 			page 25


 220              	.L28:
 925:Drivers/STM32F4xx_HAL_Driver/Src/stm32f4xx_hal_i2s_ex.c **** 
 221              		.loc 1 925 3 is_stmt 0 discriminator 4 view .LVU57
 222 001a 5368     		ldr	r3, [r2, #4]
 223 001c 23F00303 		bic	r3, r3, #3
 224 0020 5360     		str	r3, [r2, #4]
 927:Drivers/STM32F4xx_HAL_Driver/Src/stm32f4xx_hal_i2s_ex.c ****   hi2s->RxXferCount = 0U;
 225              		.loc 1 927 3 is_stmt 1 discriminator 4 view .LVU58
 927:Drivers/STM32F4xx_HAL_Driver/Src/stm32f4xx_hal_i2s_ex.c ****   hi2s->RxXferCount = 0U;
 226              		.loc 1 927 21 is_stmt 0 discriminator 4 view .LVU59
 227 0022 0023     		movs	r3, #0
 228 0024 4385     		strh	r3, [r0, #42]	@ movhi
 928:Drivers/STM32F4xx_HAL_Driver/Src/stm32f4xx_hal_i2s_ex.c **** 
 229              		.loc 1 928 3 is_stmt 1 discriminator 4 view .LVU60
 928:Drivers/STM32F4xx_HAL_Driver/Src/stm32f4xx_hal_i2s_ex.c **** 
 230              		.loc 1 928 21 is_stmt 0 discriminator 4 view .LVU61
 231 0026 4386     		strh	r3, [r0, #50]	@ movhi
 930:Drivers/STM32F4xx_HAL_Driver/Src/stm32f4xx_hal_i2s_ex.c **** 
 232              		.loc 1 930 3 is_stmt 1 discriminator 4 view .LVU62
 930:Drivers/STM32F4xx_HAL_Driver/Src/stm32f4xx_hal_i2s_ex.c **** 
 233              		.loc 1 930 15 is_stmt 0 discriminator 4 view .LVU63
 234 0028 0123     		movs	r3, #1
 235 002a 80F84130 		strb	r3, [r0, #65]
 933:Drivers/STM32F4xx_HAL_Driver/Src/stm32f4xx_hal_i2s_ex.c ****   /* Call user error callback */
 236              		.loc 1 933 3 is_stmt 1 discriminator 4 view .LVU64
 237 002e 436C     		ldr	r3, [r0, #68]
 238 0030 43F00803 		orr	r3, r3, #8
 239 0034 4364     		str	r3, [r0, #68]
 938:Drivers/STM32F4xx_HAL_Driver/Src/stm32f4xx_hal_i2s_ex.c **** #endif /* USE_HAL_I2S_REGISTER_CALLBACKS */
 240              		.loc 1 938 3 discriminator 4 view .LVU65
 241 0036 FFF7FEFF 		bl	HAL_I2S_ErrorCallback
 242              	.LVL9:
 940:Drivers/STM32F4xx_HAL_Driver/Src/stm32f4xx_hal_i2s_ex.c **** 
 243              		.loc 1 940 1 is_stmt 0 discriminator 4 view .LVU66
 244 003a 08BD     		pop	{r3, pc}
 245              	.LVL10:
 246              	.L31:
 925:Drivers/STM32F4xx_HAL_Driver/Src/stm32f4xx_hal_i2s_ex.c **** 
 247              		.loc 1 925 3 view .LVU67
 248 003c 014A     		ldr	r2, .L32+4
 249 003e ECE7     		b	.L28
 250              	.L33:
 251              		.align	2
 252              	.L32:
 253 0040 00380040 		.word	1073756160
 254 0044 00340040 		.word	1073755136
 255              		.cfi_endproc
 256              	.LFE142:
 258              		.section	.text.HAL_I2SEx_TransmitReceive,"ax",%progbits
 259              		.align	1
 260              		.global	HAL_I2SEx_TransmitReceive
 261              		.syntax unified
 262              		.thumb
 263              		.thumb_func
 265              	HAL_I2SEx_TransmitReceive:
 266              	.LVL11:
 267              	.LFB134:
ARM GAS  C:\Users\ridel\AppData\Local\Temp\ccOCejYh.s 			page 26


 211:Drivers/STM32F4xx_HAL_Driver/Src/stm32f4xx_hal_i2s_ex.c ****   uint32_t tmp1 = 0U;
 268              		.loc 1 211 1 is_stmt 1 view -0
 269              		.cfi_startproc
 270              		@ args = 4, pretend = 0, frame = 24
 271              		@ frame_needed = 0, uses_anonymous_args = 0
 211:Drivers/STM32F4xx_HAL_Driver/Src/stm32f4xx_hal_i2s_ex.c ****   uint32_t tmp1 = 0U;
 272              		.loc 1 211 1 is_stmt 0 view .LVU69
 273 0000 2DE9F043 		push	{r4, r5, r6, r7, r8, r9, lr}
 274              	.LCFI2:
 275              		.cfi_def_cfa_offset 28
 276              		.cfi_offset 4, -28
 277              		.cfi_offset 5, -24
 278              		.cfi_offset 6, -20
 279              		.cfi_offset 7, -16
 280              		.cfi_offset 8, -12
 281              		.cfi_offset 9, -8
 282              		.cfi_offset 14, -4
 283 0004 89B0     		sub	sp, sp, #36
 284              	.LCFI3:
 285              		.cfi_def_cfa_offset 64
 286 0006 DDF84080 		ldr	r8, [sp, #64]
 212:Drivers/STM32F4xx_HAL_Driver/Src/stm32f4xx_hal_i2s_ex.c **** 
 287              		.loc 1 212 3 is_stmt 1 view .LVU70
 288              	.LVL12:
 214:Drivers/STM32F4xx_HAL_Driver/Src/stm32f4xx_hal_i2s_ex.c ****   {
 289              		.loc 1 214 3 view .LVU71
 214:Drivers/STM32F4xx_HAL_Driver/Src/stm32f4xx_hal_i2s_ex.c ****   {
 290              		.loc 1 214 11 is_stmt 0 view .LVU72
 291 000a 90F84170 		ldrb	r7, [r0, #65]	@ zero_extendqisi2
 292 000e FFB2     		uxtb	r7, r7
 214:Drivers/STM32F4xx_HAL_Driver/Src/stm32f4xx_hal_i2s_ex.c ****   {
 293              		.loc 1 214 6 view .LVU73
 294 0010 012F     		cmp	r7, #1
 295 0012 40F09F81 		bne	.L64
 296 0016 0446     		mov	r4, r0
 297 0018 1646     		mov	r6, r2
 219:Drivers/STM32F4xx_HAL_Driver/Src/stm32f4xx_hal_i2s_ex.c ****   {
 298              		.loc 1 219 3 is_stmt 1 view .LVU74
 219:Drivers/STM32F4xx_HAL_Driver/Src/stm32f4xx_hal_i2s_ex.c ****   {
 299              		.loc 1 219 6 is_stmt 0 view .LVU75
 300 001a 0029     		cmp	r1, #0
 301 001c 00F09B81 		beq	.L35
 219:Drivers/STM32F4xx_HAL_Driver/Src/stm32f4xx_hal_i2s_ex.c ****   {
 302              		.loc 1 219 25 discriminator 1 view .LVU76
 303 0020 002A     		cmp	r2, #0
 304 0022 00F09881 		beq	.L35
 219:Drivers/STM32F4xx_HAL_Driver/Src/stm32f4xx_hal_i2s_ex.c ****   {
 305              		.loc 1 219 46 discriminator 2 view .LVU77
 306 0026 002B     		cmp	r3, #0
 307 0028 00F09581 		beq	.L35
 225:Drivers/STM32F4xx_HAL_Driver/Src/stm32f4xx_hal_i2s_ex.c **** 
 308              		.loc 1 225 3 is_stmt 1 view .LVU78
 225:Drivers/STM32F4xx_HAL_Driver/Src/stm32f4xx_hal_i2s_ex.c **** 
 309              		.loc 1 225 3 view .LVU79
 310 002c 90F84020 		ldrb	r2, [r0, #64]	@ zero_extendqisi2
 311              	.LVL13:
 225:Drivers/STM32F4xx_HAL_Driver/Src/stm32f4xx_hal_i2s_ex.c **** 
ARM GAS  C:\Users\ridel\AppData\Local\Temp\ccOCejYh.s 			page 27


 312              		.loc 1 225 3 is_stmt 0 view .LVU80
 313 0030 D2B2     		uxtb	r2, r2
 314 0032 012A     		cmp	r2, #1
 315 0034 00F09381 		beq	.L65
 225:Drivers/STM32F4xx_HAL_Driver/Src/stm32f4xx_hal_i2s_ex.c **** 
 316              		.loc 1 225 3 is_stmt 1 discriminator 2 view .LVU81
 317 0038 0122     		movs	r2, #1
 318 003a 80F84020 		strb	r2, [r0, #64]
 225:Drivers/STM32F4xx_HAL_Driver/Src/stm32f4xx_hal_i2s_ex.c **** 
 319              		.loc 1 225 3 discriminator 2 view .LVU82
 227:Drivers/STM32F4xx_HAL_Driver/Src/stm32f4xx_hal_i2s_ex.c ****   /* Check the Data format: When a 16-bit data frame or a 16-bit data frame extended
 320              		.loc 1 227 3 discriminator 2 view .LVU83
 227:Drivers/STM32F4xx_HAL_Driver/Src/stm32f4xx_hal_i2s_ex.c ****   /* Check the Data format: When a 16-bit data frame or a 16-bit data frame extended
 321              		.loc 1 227 14 is_stmt 0 discriminator 2 view .LVU84
 322 003e 0068     		ldr	r0, [r0]
 323              	.LVL14:
 227:Drivers/STM32F4xx_HAL_Driver/Src/stm32f4xx_hal_i2s_ex.c ****   /* Check the Data format: When a 16-bit data frame or a 16-bit data frame extended
 324              		.loc 1 227 24 discriminator 2 view .LVU85
 325 0040 C269     		ldr	r2, [r0, #28]
 227:Drivers/STM32F4xx_HAL_Driver/Src/stm32f4xx_hal_i2s_ex.c ****   /* Check the Data format: When a 16-bit data frame or a 16-bit data frame extended
 326              		.loc 1 227 8 discriminator 2 view .LVU86
 327 0042 02F00702 		and	r2, r2, #7
 328              	.LVL15:
 232:Drivers/STM32F4xx_HAL_Driver/Src/stm32f4xx_hal_i2s_ex.c ****   {
 329              		.loc 1 232 3 is_stmt 1 discriminator 2 view .LVU87
 232:Drivers/STM32F4xx_HAL_Driver/Src/stm32f4xx_hal_i2s_ex.c ****   {
 330              		.loc 1 232 6 is_stmt 0 discriminator 2 view .LVU88
 331 0046 032A     		cmp	r2, #3
 332 0048 06D0     		beq	.L36
 232:Drivers/STM32F4xx_HAL_Driver/Src/stm32f4xx_hal_i2s_ex.c ****   {
 333              		.loc 1 232 36 discriminator 1 view .LVU89
 334 004a 052A     		cmp	r2, #5
 335 004c 04D0     		beq	.L36
 241:Drivers/STM32F4xx_HAL_Driver/Src/stm32f4xx_hal_i2s_ex.c ****     hi2s->TxXferCount = Size;
 336              		.loc 1 241 5 is_stmt 1 view .LVU90
 241:Drivers/STM32F4xx_HAL_Driver/Src/stm32f4xx_hal_i2s_ex.c ****     hi2s->TxXferCount = Size;
 337              		.loc 1 241 23 is_stmt 0 view .LVU91
 338 004e 2385     		strh	r3, [r4, #40]	@ movhi
 242:Drivers/STM32F4xx_HAL_Driver/Src/stm32f4xx_hal_i2s_ex.c ****     hi2s->RxXferSize  = Size;
 339              		.loc 1 242 5 is_stmt 1 view .LVU92
 242:Drivers/STM32F4xx_HAL_Driver/Src/stm32f4xx_hal_i2s_ex.c ****     hi2s->RxXferSize  = Size;
 340              		.loc 1 242 23 is_stmt 0 view .LVU93
 341 0050 6385     		strh	r3, [r4, #42]	@ movhi
 243:Drivers/STM32F4xx_HAL_Driver/Src/stm32f4xx_hal_i2s_ex.c ****     hi2s->RxXferCount = Size;
 342              		.loc 1 243 5 is_stmt 1 view .LVU94
 243:Drivers/STM32F4xx_HAL_Driver/Src/stm32f4xx_hal_i2s_ex.c ****     hi2s->RxXferCount = Size;
 343              		.loc 1 243 23 is_stmt 0 view .LVU95
 344 0052 2386     		strh	r3, [r4, #48]	@ movhi
 244:Drivers/STM32F4xx_HAL_Driver/Src/stm32f4xx_hal_i2s_ex.c ****   }
 345              		.loc 1 244 5 is_stmt 1 view .LVU96
 244:Drivers/STM32F4xx_HAL_Driver/Src/stm32f4xx_hal_i2s_ex.c ****   }
 346              		.loc 1 244 23 is_stmt 0 view .LVU97
 347 0054 6386     		strh	r3, [r4, #50]	@ movhi
 348 0056 05E0     		b	.L38
 349              	.L36:
 234:Drivers/STM32F4xx_HAL_Driver/Src/stm32f4xx_hal_i2s_ex.c ****     hi2s->TxXferCount = (Size << 1U);
 350              		.loc 1 234 5 is_stmt 1 view .LVU98
ARM GAS  C:\Users\ridel\AppData\Local\Temp\ccOCejYh.s 			page 28


 234:Drivers/STM32F4xx_HAL_Driver/Src/stm32f4xx_hal_i2s_ex.c ****     hi2s->TxXferCount = (Size << 1U);
 351              		.loc 1 234 31 is_stmt 0 view .LVU99
 352 0058 5B00     		lsls	r3, r3, #1
 353              	.LVL16:
 234:Drivers/STM32F4xx_HAL_Driver/Src/stm32f4xx_hal_i2s_ex.c ****     hi2s->TxXferCount = (Size << 1U);
 354              		.loc 1 234 31 view .LVU100
 355 005a 9BB2     		uxth	r3, r3
 234:Drivers/STM32F4xx_HAL_Driver/Src/stm32f4xx_hal_i2s_ex.c ****     hi2s->TxXferCount = (Size << 1U);
 356              		.loc 1 234 23 view .LVU101
 357 005c 2385     		strh	r3, [r4, #40]	@ movhi
 235:Drivers/STM32F4xx_HAL_Driver/Src/stm32f4xx_hal_i2s_ex.c ****     hi2s->RxXferSize  = (Size << 1U);
 358              		.loc 1 235 5 is_stmt 1 view .LVU102
 235:Drivers/STM32F4xx_HAL_Driver/Src/stm32f4xx_hal_i2s_ex.c ****     hi2s->RxXferSize  = (Size << 1U);
 359              		.loc 1 235 23 is_stmt 0 view .LVU103
 360 005e 6385     		strh	r3, [r4, #42]	@ movhi
 236:Drivers/STM32F4xx_HAL_Driver/Src/stm32f4xx_hal_i2s_ex.c ****     hi2s->RxXferCount = (Size << 1U);
 361              		.loc 1 236 5 is_stmt 1 view .LVU104
 236:Drivers/STM32F4xx_HAL_Driver/Src/stm32f4xx_hal_i2s_ex.c ****     hi2s->RxXferCount = (Size << 1U);
 362              		.loc 1 236 23 is_stmt 0 view .LVU105
 363 0060 2386     		strh	r3, [r4, #48]	@ movhi
 237:Drivers/STM32F4xx_HAL_Driver/Src/stm32f4xx_hal_i2s_ex.c ****   }
 364              		.loc 1 237 5 is_stmt 1 view .LVU106
 237:Drivers/STM32F4xx_HAL_Driver/Src/stm32f4xx_hal_i2s_ex.c ****   }
 365              		.loc 1 237 23 is_stmt 0 view .LVU107
 366 0062 6386     		strh	r3, [r4, #50]	@ movhi
 367              	.L38:
 248:Drivers/STM32F4xx_HAL_Driver/Src/stm32f4xx_hal_i2s_ex.c ****   hi2s->State = HAL_I2S_STATE_BUSY_TX_RX;
 368              		.loc 1 248 3 is_stmt 1 view .LVU108
 248:Drivers/STM32F4xx_HAL_Driver/Src/stm32f4xx_hal_i2s_ex.c ****   hi2s->State = HAL_I2S_STATE_BUSY_TX_RX;
 369              		.loc 1 248 19 is_stmt 0 view .LVU109
 370 0064 0023     		movs	r3, #0
 371 0066 6364     		str	r3, [r4, #68]
 249:Drivers/STM32F4xx_HAL_Driver/Src/stm32f4xx_hal_i2s_ex.c **** 
 372              		.loc 1 249 3 is_stmt 1 view .LVU110
 249:Drivers/STM32F4xx_HAL_Driver/Src/stm32f4xx_hal_i2s_ex.c **** 
 373              		.loc 1 249 15 is_stmt 0 view .LVU111
 374 0068 0523     		movs	r3, #5
 375 006a 84F84130 		strb	r3, [r4, #65]
 251:Drivers/STM32F4xx_HAL_Driver/Src/stm32f4xx_hal_i2s_ex.c ****   /* Check if the I2S_MODE_MASTER_TX or I2S_MODE_SLAVE_TX Mode is selected */
 376              		.loc 1 251 3 is_stmt 1 view .LVU112
 251:Drivers/STM32F4xx_HAL_Driver/Src/stm32f4xx_hal_i2s_ex.c ****   /* Check if the I2S_MODE_MASTER_TX or I2S_MODE_SLAVE_TX Mode is selected */
 377              		.loc 1 251 24 is_stmt 0 view .LVU113
 378 006e C369     		ldr	r3, [r0, #28]
 251:Drivers/STM32F4xx_HAL_Driver/Src/stm32f4xx_hal_i2s_ex.c ****   /* Check if the I2S_MODE_MASTER_TX or I2S_MODE_SLAVE_TX Mode is selected */
 379              		.loc 1 251 8 view .LVU114
 380 0070 03F44079 		and	r9, r3, #768
 381              	.LVL17:
 253:Drivers/STM32F4xx_HAL_Driver/Src/stm32f4xx_hal_i2s_ex.c ****   {
 382              		.loc 1 253 3 is_stmt 1 view .LVU115
 253:Drivers/STM32F4xx_HAL_Driver/Src/stm32f4xx_hal_i2s_ex.c ****   {
 383              		.loc 1 253 6 is_stmt 0 view .LVU116
 384 0074 B9F5007F 		cmp	r9, #512
 385 0078 03D0     		beq	.L39
 253:Drivers/STM32F4xx_HAL_Driver/Src/stm32f4xx_hal_i2s_ex.c ****   {
 386              		.loc 1 253 36 discriminator 1 view .LVU117
 387 007a B9F1000F 		cmp	r9, #0
 388 007e 40F0B880 		bne	.L40
ARM GAS  C:\Users\ridel\AppData\Local\Temp\ccOCejYh.s 			page 29


 389              	.L39:
 256:Drivers/STM32F4xx_HAL_Driver/Src/stm32f4xx_hal_i2s_ex.c ****     hi2s->TxXferCount--;
 390              		.loc 1 256 5 is_stmt 1 view .LVU118
 256:Drivers/STM32F4xx_HAL_Driver/Src/stm32f4xx_hal_i2s_ex.c ****     hi2s->TxXferCount--;
 391              		.loc 1 256 35 is_stmt 0 view .LVU119
 392 0082 0D46     		mov	r5, r1
 393              	.LVL18:
 256:Drivers/STM32F4xx_HAL_Driver/Src/stm32f4xx_hal_i2s_ex.c ****     hi2s->TxXferCount--;
 394              		.loc 1 256 27 view .LVU120
 395 0084 35F8023B 		ldrh	r3, [r5], #2
 396              	.LVL19:
 256:Drivers/STM32F4xx_HAL_Driver/Src/stm32f4xx_hal_i2s_ex.c ****     hi2s->TxXferCount--;
 397              		.loc 1 256 24 view .LVU121
 398 0088 C360     		str	r3, [r0, #12]
 257:Drivers/STM32F4xx_HAL_Driver/Src/stm32f4xx_hal_i2s_ex.c **** 
 399              		.loc 1 257 5 is_stmt 1 view .LVU122
 257:Drivers/STM32F4xx_HAL_Driver/Src/stm32f4xx_hal_i2s_ex.c **** 
 400              		.loc 1 257 9 is_stmt 0 view .LVU123
 401 008a 638D     		ldrh	r3, [r4, #42]
 402 008c 9BB2     		uxth	r3, r3
 257:Drivers/STM32F4xx_HAL_Driver/Src/stm32f4xx_hal_i2s_ex.c **** 
 403              		.loc 1 257 22 view .LVU124
 404 008e 013B     		subs	r3, r3, #1
 405 0090 9BB2     		uxth	r3, r3
 406 0092 6385     		strh	r3, [r4, #42]	@ movhi
 260:Drivers/STM32F4xx_HAL_Driver/Src/stm32f4xx_hal_i2s_ex.c **** 
 407              		.loc 1 260 5 is_stmt 1 view .LVU125
 408 0094 2268     		ldr	r2, [r4]
 409 0096 964B     		ldr	r3, .L98
 410 0098 9A42     		cmp	r2, r3
 411 009a 1ED0     		beq	.L82
 412 009c 4FF04022 		mov	r2, #1073758208
 413              	.L41:
 260:Drivers/STM32F4xx_HAL_Driver/Src/stm32f4xx_hal_i2s_ex.c **** 
 414              		.loc 1 260 5 is_stmt 0 discriminator 4 view .LVU126
 415 00a0 D369     		ldr	r3, [r2, #28]
 416 00a2 43F48063 		orr	r3, r3, #1024
 417 00a6 D361     		str	r3, [r2, #28]
 263:Drivers/STM32F4xx_HAL_Driver/Src/stm32f4xx_hal_i2s_ex.c **** 
 418              		.loc 1 263 5 is_stmt 1 discriminator 4 view .LVU127
 419 00a8 2268     		ldr	r2, [r4]
 420 00aa D369     		ldr	r3, [r2, #28]
 421 00ac 43F48063 		orr	r3, r3, #1024
 422 00b0 D361     		str	r3, [r2, #28]
 266:Drivers/STM32F4xx_HAL_Driver/Src/stm32f4xx_hal_i2s_ex.c ****     {
 423              		.loc 1 266 5 discriminator 4 view .LVU128
 266:Drivers/STM32F4xx_HAL_Driver/Src/stm32f4xx_hal_i2s_ex.c ****     {
 424              		.loc 1 266 14 is_stmt 0 discriminator 4 view .LVU129
 425 00b2 2268     		ldr	r2, [r4]
 266:Drivers/STM32F4xx_HAL_Driver/Src/stm32f4xx_hal_i2s_ex.c ****     {
 426              		.loc 1 266 24 discriminator 4 view .LVU130
 427 00b4 D369     		ldr	r3, [r2, #28]
 266:Drivers/STM32F4xx_HAL_Driver/Src/stm32f4xx_hal_i2s_ex.c ****     {
 428              		.loc 1 266 34 discriminator 4 view .LVU131
 429 00b6 03F44073 		and	r3, r3, #768
 266:Drivers/STM32F4xx_HAL_Driver/Src/stm32f4xx_hal_i2s_ex.c ****     {
 430              		.loc 1 266 8 discriminator 4 view .LVU132
ARM GAS  C:\Users\ridel\AppData\Local\Temp\ccOCejYh.s 			page 30


 431 00ba B3F5007F 		cmp	r3, #512
 432 00be 18D1     		bne	.L44
 270:Drivers/STM32F4xx_HAL_Driver/Src/stm32f4xx_hal_i2s_ex.c ****     }
 433              		.loc 1 270 7 is_stmt 1 view .LVU133
 434              	.LBB2:
 270:Drivers/STM32F4xx_HAL_Driver/Src/stm32f4xx_hal_i2s_ex.c ****     }
 435              		.loc 1 270 7 view .LVU134
 436 00c0 0023     		movs	r3, #0
 437 00c2 0293     		str	r3, [sp, #8]
 270:Drivers/STM32F4xx_HAL_Driver/Src/stm32f4xx_hal_i2s_ex.c ****     }
 438              		.loc 1 270 7 view .LVU135
 439 00c4 8A4B     		ldr	r3, .L98
 440 00c6 9A42     		cmp	r2, r3
 441 00c8 09D0     		beq	.L83
 442 00ca 4FF04023 		mov	r3, #1073758208
 443              	.L43:
 270:Drivers/STM32F4xx_HAL_Driver/Src/stm32f4xx_hal_i2s_ex.c ****     }
 444              		.loc 1 270 7 is_stmt 0 discriminator 4 view .LVU136
 445 00ce DA68     		ldr	r2, [r3, #12]
 446 00d0 0292     		str	r2, [sp, #8]
 270:Drivers/STM32F4xx_HAL_Driver/Src/stm32f4xx_hal_i2s_ex.c ****     }
 447              		.loc 1 270 7 is_stmt 1 discriminator 4 view .LVU137
 448 00d2 9B68     		ldr	r3, [r3, #8]
 449 00d4 0293     		str	r3, [sp, #8]
 270:Drivers/STM32F4xx_HAL_Driver/Src/stm32f4xx_hal_i2s_ex.c ****     }
 450              		.loc 1 270 7 discriminator 4 view .LVU138
 451 00d6 029B     		ldr	r3, [sp, #8]
 452 00d8 0BE0     		b	.L44
 453              	.L82:
 270:Drivers/STM32F4xx_HAL_Driver/Src/stm32f4xx_hal_i2s_ex.c ****     }
 454              		.loc 1 270 7 is_stmt 0 discriminator 4 view .LVU139
 455              	.LBE2:
 260:Drivers/STM32F4xx_HAL_Driver/Src/stm32f4xx_hal_i2s_ex.c **** 
 456              		.loc 1 260 5 view .LVU140
 457 00da 864A     		ldr	r2, .L98+4
 458 00dc E0E7     		b	.L41
 459              	.L83:
 460              	.LBB3:
 270:Drivers/STM32F4xx_HAL_Driver/Src/stm32f4xx_hal_i2s_ex.c ****     }
 461              		.loc 1 270 7 view .LVU141
 462 00de A3F58063 		sub	r3, r3, #1024
 463 00e2 F4E7     		b	.L43
 464              	.L51:
 270:Drivers/STM32F4xx_HAL_Driver/Src/stm32f4xx_hal_i2s_ex.c ****     }
 465              		.loc 1 270 7 view .LVU142
 466              	.LBE3:
 275:Drivers/STM32F4xx_HAL_Driver/Src/stm32f4xx_hal_i2s_ex.c ****       {
 467              		.loc 1 275 7 is_stmt 1 view .LVU143
 275:Drivers/STM32F4xx_HAL_Driver/Src/stm32f4xx_hal_i2s_ex.c ****       {
 468              		.loc 1 275 15 is_stmt 0 view .LVU144
 469 00e4 638D     		ldrh	r3, [r4, #42]
 470 00e6 9BB2     		uxth	r3, r3
 275:Drivers/STM32F4xx_HAL_Driver/Src/stm32f4xx_hal_i2s_ex.c ****       {
 471              		.loc 1 275 10 view .LVU145
 472 00e8 BBB9     		cbnz	r3, .L84
 473              	.L45:
 302:Drivers/STM32F4xx_HAL_Driver/Src/stm32f4xx_hal_i2s_ex.c ****       {
ARM GAS  C:\Users\ridel\AppData\Local\Temp\ccOCejYh.s 			page 31


 474              		.loc 1 302 7 is_stmt 1 view .LVU146
 302:Drivers/STM32F4xx_HAL_Driver/Src/stm32f4xx_hal_i2s_ex.c ****       {
 475              		.loc 1 302 15 is_stmt 0 view .LVU147
 476 00ea 638E     		ldrh	r3, [r4, #50]
 477 00ec 9BB2     		uxth	r3, r3
 302:Drivers/STM32F4xx_HAL_Driver/Src/stm32f4xx_hal_i2s_ex.c ****       {
 478              		.loc 1 302 10 view .LVU148
 479 00ee 002B     		cmp	r3, #0
 480 00f0 42D1     		bne	.L85
 481              	.L44:
 273:Drivers/STM32F4xx_HAL_Driver/Src/stm32f4xx_hal_i2s_ex.c ****     {
 482              		.loc 1 273 11 is_stmt 1 view .LVU149
 273:Drivers/STM32F4xx_HAL_Driver/Src/stm32f4xx_hal_i2s_ex.c ****     {
 483              		.loc 1 273 17 is_stmt 0 view .LVU150
 484 00f2 638E     		ldrh	r3, [r4, #50]
 485 00f4 9BB2     		uxth	r3, r3
 273:Drivers/STM32F4xx_HAL_Driver/Src/stm32f4xx_hal_i2s_ex.c ****     {
 486              		.loc 1 273 11 view .LVU151
 487 00f6 002B     		cmp	r3, #0
 488 00f8 F4D1     		bne	.L51
 273:Drivers/STM32F4xx_HAL_Driver/Src/stm32f4xx_hal_i2s_ex.c ****     {
 489              		.loc 1 273 45 discriminator 1 view .LVU152
 490 00fa 638D     		ldrh	r3, [r4, #42]
 491 00fc 9BB2     		uxth	r3, r3
 273:Drivers/STM32F4xx_HAL_Driver/Src/stm32f4xx_hal_i2s_ex.c ****     {
 492              		.loc 1 273 37 discriminator 1 view .LVU153
 493 00fe 002B     		cmp	r3, #0
 494 0100 F0D1     		bne	.L51
 495              	.L52:
 411:Drivers/STM32F4xx_HAL_Driver/Src/stm32f4xx_hal_i2s_ex.c ****   __HAL_UNLOCK(hi2s);
 496              		.loc 1 411 3 is_stmt 1 view .LVU154
 411:Drivers/STM32F4xx_HAL_Driver/Src/stm32f4xx_hal_i2s_ex.c ****   __HAL_UNLOCK(hi2s);
 497              		.loc 1 411 15 is_stmt 0 view .LVU155
 498 0102 0123     		movs	r3, #1
 499 0104 84F84130 		strb	r3, [r4, #65]
 412:Drivers/STM32F4xx_HAL_Driver/Src/stm32f4xx_hal_i2s_ex.c **** 
 500              		.loc 1 412 3 is_stmt 1 view .LVU156
 412:Drivers/STM32F4xx_HAL_Driver/Src/stm32f4xx_hal_i2s_ex.c **** 
 501              		.loc 1 412 3 view .LVU157
 502 0108 0023     		movs	r3, #0
 503 010a 84F84030 		strb	r3, [r4, #64]
 412:Drivers/STM32F4xx_HAL_Driver/Src/stm32f4xx_hal_i2s_ex.c **** 
 504              		.loc 1 412 3 view .LVU158
 414:Drivers/STM32F4xx_HAL_Driver/Src/stm32f4xx_hal_i2s_ex.c ****   {
 505              		.loc 1 414 3 view .LVU159
 414:Drivers/STM32F4xx_HAL_Driver/Src/stm32f4xx_hal_i2s_ex.c ****   {
 506              		.loc 1 414 11 is_stmt 0 view .LVU160
 507 010e 636C     		ldr	r3, [r4, #68]
 414:Drivers/STM32F4xx_HAL_Driver/Src/stm32f4xx_hal_i2s_ex.c ****   {
 508              		.loc 1 414 6 view .LVU161
 509 0110 002B     		cmp	r3, #0
 510 0112 40F02081 		bne	.L35
 420:Drivers/STM32F4xx_HAL_Driver/Src/stm32f4xx_hal_i2s_ex.c ****   }
 511              		.loc 1 420 12 view .LVU162
 512 0116 0027     		movs	r7, #0
 513 0118 1DE1     		b	.L35
 514              	.L84:
ARM GAS  C:\Users\ridel\AppData\Local\Temp\ccOCejYh.s 			page 32


 278:Drivers/STM32F4xx_HAL_Driver/Src/stm32f4xx_hal_i2s_ex.c ****         {
 515              		.loc 1 278 9 is_stmt 1 view .LVU163
 278:Drivers/STM32F4xx_HAL_Driver/Src/stm32f4xx_hal_i2s_ex.c ****         {
 516              		.loc 1 278 13 is_stmt 0 view .LVU164
 517 011a 0023     		movs	r3, #0
 518 011c 0093     		str	r3, [sp]
 519 011e 4346     		mov	r3, r8
 520 0120 0122     		movs	r2, #1
 521 0122 0221     		movs	r1, #2
 522 0124 2046     		mov	r0, r4
 523 0126 FFF7FEFF 		bl	I2SEx_FullDuplexWaitFlagStateUntilTimeout
 524              	.LVL20:
 278:Drivers/STM32F4xx_HAL_Driver/Src/stm32f4xx_hal_i2s_ex.c ****         {
 525              		.loc 1 278 12 view .LVU165
 526 012a D0B9     		cbnz	r0, .L86
 289:Drivers/STM32F4xx_HAL_Driver/Src/stm32f4xx_hal_i2s_ex.c ****         hi2s->TxXferCount--;
 527              		.loc 1 289 9 is_stmt 1 view .LVU166
 528              	.LVL21:
 289:Drivers/STM32F4xx_HAL_Driver/Src/stm32f4xx_hal_i2s_ex.c ****         hi2s->TxXferCount--;
 529              		.loc 1 289 13 is_stmt 0 view .LVU167
 530 012c 2368     		ldr	r3, [r4]
 289:Drivers/STM32F4xx_HAL_Driver/Src/stm32f4xx_hal_i2s_ex.c ****         hi2s->TxXferCount--;
 531              		.loc 1 289 31 view .LVU168
 532 012e 35F8022B 		ldrh	r2, [r5], #2
 533              	.LVL22:
 289:Drivers/STM32F4xx_HAL_Driver/Src/stm32f4xx_hal_i2s_ex.c ****         hi2s->TxXferCount--;
 534              		.loc 1 289 28 view .LVU169
 535 0132 DA60     		str	r2, [r3, #12]
 290:Drivers/STM32F4xx_HAL_Driver/Src/stm32f4xx_hal_i2s_ex.c **** 
 536              		.loc 1 290 9 is_stmt 1 view .LVU170
 290:Drivers/STM32F4xx_HAL_Driver/Src/stm32f4xx_hal_i2s_ex.c **** 
 537              		.loc 1 290 13 is_stmt 0 view .LVU171
 538 0134 638D     		ldrh	r3, [r4, #42]
 539 0136 9BB2     		uxth	r3, r3
 290:Drivers/STM32F4xx_HAL_Driver/Src/stm32f4xx_hal_i2s_ex.c **** 
 540              		.loc 1 290 26 view .LVU172
 541 0138 013B     		subs	r3, r3, #1
 542 013a 9BB2     		uxth	r3, r3
 543 013c 6385     		strh	r3, [r4, #42]	@ movhi
 293:Drivers/STM32F4xx_HAL_Driver/Src/stm32f4xx_hal_i2s_ex.c ****         {
 544              		.loc 1 293 9 is_stmt 1 view .LVU173
 293:Drivers/STM32F4xx_HAL_Driver/Src/stm32f4xx_hal_i2s_ex.c ****         {
 545              		.loc 1 293 14 is_stmt 0 view .LVU174
 546 013e 2368     		ldr	r3, [r4]
 547 0140 9A68     		ldr	r2, [r3, #8]
 293:Drivers/STM32F4xx_HAL_Driver/Src/stm32f4xx_hal_i2s_ex.c ****         {
 548              		.loc 1 293 12 view .LVU175
 549 0142 12F0080F 		tst	r2, #8
 550 0146 D0D0     		beq	.L45
 293:Drivers/STM32F4xx_HAL_Driver/Src/stm32f4xx_hal_i2s_ex.c ****         {
 551              		.loc 1 293 61 discriminator 1 view .LVU176
 552 0148 B9F1000F 		cmp	r9, #0
 553 014c CDD1     		bne	.L45
 296:Drivers/STM32F4xx_HAL_Driver/Src/stm32f4xx_hal_i2s_ex.c **** 
 554              		.loc 1 296 11 is_stmt 1 view .LVU177
 555              	.LBB4:
 296:Drivers/STM32F4xx_HAL_Driver/Src/stm32f4xx_hal_i2s_ex.c **** 
ARM GAS  C:\Users\ridel\AppData\Local\Temp\ccOCejYh.s 			page 33


 556              		.loc 1 296 11 view .LVU178
 557 014e 0022     		movs	r2, #0
 558 0150 0392     		str	r2, [sp, #12]
 296:Drivers/STM32F4xx_HAL_Driver/Src/stm32f4xx_hal_i2s_ex.c **** 
 559              		.loc 1 296 11 view .LVU179
 560 0152 9B68     		ldr	r3, [r3, #8]
 561 0154 0393     		str	r3, [sp, #12]
 296:Drivers/STM32F4xx_HAL_Driver/Src/stm32f4xx_hal_i2s_ex.c **** 
 562              		.loc 1 296 11 view .LVU180
 563 0156 039B     		ldr	r3, [sp, #12]
 564              	.LBE4:
 296:Drivers/STM32F4xx_HAL_Driver/Src/stm32f4xx_hal_i2s_ex.c **** 
 565              		.loc 1 296 11 view .LVU181
 299:Drivers/STM32F4xx_HAL_Driver/Src/stm32f4xx_hal_i2s_ex.c ****         }
 566              		.loc 1 299 11 view .LVU182
 567 0158 636C     		ldr	r3, [r4, #68]
 568 015a 43F00403 		orr	r3, r3, #4
 569 015e 6364     		str	r3, [r4, #68]
 570 0160 C3E7     		b	.L45
 571              	.L86:
 281:Drivers/STM32F4xx_HAL_Driver/Src/stm32f4xx_hal_i2s_ex.c ****           hi2s->State = HAL_I2S_STATE_READY;
 572              		.loc 1 281 11 view .LVU183
 573 0162 636C     		ldr	r3, [r4, #68]
 574 0164 43F00103 		orr	r3, r3, #1
 575 0168 6364     		str	r3, [r4, #68]
 282:Drivers/STM32F4xx_HAL_Driver/Src/stm32f4xx_hal_i2s_ex.c **** 
 576              		.loc 1 282 11 view .LVU184
 282:Drivers/STM32F4xx_HAL_Driver/Src/stm32f4xx_hal_i2s_ex.c **** 
 577              		.loc 1 282 23 is_stmt 0 view .LVU185
 578 016a 0123     		movs	r3, #1
 579 016c 84F84130 		strb	r3, [r4, #65]
 285:Drivers/STM32F4xx_HAL_Driver/Src/stm32f4xx_hal_i2s_ex.c ****           return HAL_ERROR;
 580              		.loc 1 285 11 is_stmt 1 view .LVU186
 285:Drivers/STM32F4xx_HAL_Driver/Src/stm32f4xx_hal_i2s_ex.c ****           return HAL_ERROR;
 581              		.loc 1 285 11 view .LVU187
 582 0170 0023     		movs	r3, #0
 583 0172 84F84030 		strb	r3, [r4, #64]
 285:Drivers/STM32F4xx_HAL_Driver/Src/stm32f4xx_hal_i2s_ex.c ****           return HAL_ERROR;
 584              		.loc 1 285 11 view .LVU188
 286:Drivers/STM32F4xx_HAL_Driver/Src/stm32f4xx_hal_i2s_ex.c ****         }
 585              		.loc 1 286 11 view .LVU189
 286:Drivers/STM32F4xx_HAL_Driver/Src/stm32f4xx_hal_i2s_ex.c ****         }
 586              		.loc 1 286 18 is_stmt 0 view .LVU190
 587 0176 EEE0     		b	.L35
 588              	.L85:
 305:Drivers/STM32F4xx_HAL_Driver/Src/stm32f4xx_hal_i2s_ex.c ****         {
 589              		.loc 1 305 9 is_stmt 1 view .LVU191
 305:Drivers/STM32F4xx_HAL_Driver/Src/stm32f4xx_hal_i2s_ex.c ****         {
 590              		.loc 1 305 13 is_stmt 0 view .LVU192
 591 0178 0121     		movs	r1, #1
 592 017a 0091     		str	r1, [sp]
 593 017c 4346     		mov	r3, r8
 594 017e 0A46     		mov	r2, r1
 595 0180 2046     		mov	r0, r4
 596 0182 FFF7FEFF 		bl	I2SEx_FullDuplexWaitFlagStateUntilTimeout
 597              	.LVL23:
 305:Drivers/STM32F4xx_HAL_Driver/Src/stm32f4xx_hal_i2s_ex.c ****         {
ARM GAS  C:\Users\ridel\AppData\Local\Temp\ccOCejYh.s 			page 34


 598              		.loc 1 305 12 view .LVU193
 599 0186 18BB     		cbnz	r0, .L87
 316:Drivers/STM32F4xx_HAL_Driver/Src/stm32f4xx_hal_i2s_ex.c ****         hi2s->RxXferCount--;
 600              		.loc 1 316 9 is_stmt 1 view .LVU194
 316:Drivers/STM32F4xx_HAL_Driver/Src/stm32f4xx_hal_i2s_ex.c ****         hi2s->RxXferCount--;
 601              		.loc 1 316 24 is_stmt 0 view .LVU195
 602 0188 2268     		ldr	r2, [r4]
 603 018a 594B     		ldr	r3, .L98
 604 018c 9A42     		cmp	r2, r3
 605 018e 2AD0     		beq	.L88
 606 0190 4FF04023 		mov	r3, #1073758208
 607              	.L49:
 316:Drivers/STM32F4xx_HAL_Driver/Src/stm32f4xx_hal_i2s_ex.c ****         hi2s->RxXferCount--;
 608              		.loc 1 316 47 discriminator 4 view .LVU196
 609 0194 DB68     		ldr	r3, [r3, #12]
 610              	.LVL24:
 316:Drivers/STM32F4xx_HAL_Driver/Src/stm32f4xx_hal_i2s_ex.c ****         hi2s->RxXferCount--;
 611              		.loc 1 316 22 discriminator 4 view .LVU197
 612 0196 26F8023B 		strh	r3, [r6], #2	@ movhi
 613              	.LVL25:
 317:Drivers/STM32F4xx_HAL_Driver/Src/stm32f4xx_hal_i2s_ex.c **** 
 614              		.loc 1 317 9 is_stmt 1 discriminator 4 view .LVU198
 317:Drivers/STM32F4xx_HAL_Driver/Src/stm32f4xx_hal_i2s_ex.c **** 
 615              		.loc 1 317 13 is_stmt 0 discriminator 4 view .LVU199
 616 019a 638E     		ldrh	r3, [r4, #50]
 617 019c 9BB2     		uxth	r3, r3
 317:Drivers/STM32F4xx_HAL_Driver/Src/stm32f4xx_hal_i2s_ex.c **** 
 618              		.loc 1 317 26 discriminator 4 view .LVU200
 619 019e 013B     		subs	r3, r3, #1
 620 01a0 9BB2     		uxth	r3, r3
 621 01a2 6386     		strh	r3, [r4, #50]	@ movhi
 320:Drivers/STM32F4xx_HAL_Driver/Src/stm32f4xx_hal_i2s_ex.c ****         {
 622              		.loc 1 320 9 is_stmt 1 discriminator 4 view .LVU201
 320:Drivers/STM32F4xx_HAL_Driver/Src/stm32f4xx_hal_i2s_ex.c ****         {
 623              		.loc 1 320 13 is_stmt 0 discriminator 4 view .LVU202
 624 01a4 2368     		ldr	r3, [r4]
 625 01a6 524A     		ldr	r2, .L98
 626 01a8 9342     		cmp	r3, r2
 627 01aa 1FD0     		beq	.L89
 320:Drivers/STM32F4xx_HAL_Driver/Src/stm32f4xx_hal_i2s_ex.c ****         {
 628              		.loc 1 320 13 view .LVU203
 629 01ac 4FF04022 		mov	r2, #1073758208
 630              	.L50:
 320:Drivers/STM32F4xx_HAL_Driver/Src/stm32f4xx_hal_i2s_ex.c ****         {
 631              		.loc 1 320 13 discriminator 4 view .LVU204
 632 01b0 9268     		ldr	r2, [r2, #8]
 320:Drivers/STM32F4xx_HAL_Driver/Src/stm32f4xx_hal_i2s_ex.c ****         {
 633              		.loc 1 320 12 discriminator 4 view .LVU205
 634 01b2 12F0400F 		tst	r2, #64
 635 01b6 9CD0     		beq	.L44
 323:Drivers/STM32F4xx_HAL_Driver/Src/stm32f4xx_hal_i2s_ex.c **** 
 636              		.loc 1 323 11 is_stmt 1 view .LVU206
 637              	.LBB5:
 323:Drivers/STM32F4xx_HAL_Driver/Src/stm32f4xx_hal_i2s_ex.c **** 
 638              		.loc 1 323 11 view .LVU207
 639 01b8 0022     		movs	r2, #0
 640 01ba 0492     		str	r2, [sp, #16]
ARM GAS  C:\Users\ridel\AppData\Local\Temp\ccOCejYh.s 			page 35


 323:Drivers/STM32F4xx_HAL_Driver/Src/stm32f4xx_hal_i2s_ex.c **** 
 641              		.loc 1 323 11 view .LVU208
 642 01bc DA68     		ldr	r2, [r3, #12]
 643 01be 0492     		str	r2, [sp, #16]
 323:Drivers/STM32F4xx_HAL_Driver/Src/stm32f4xx_hal_i2s_ex.c **** 
 644              		.loc 1 323 11 view .LVU209
 645 01c0 9B68     		ldr	r3, [r3, #8]
 646 01c2 0493     		str	r3, [sp, #16]
 323:Drivers/STM32F4xx_HAL_Driver/Src/stm32f4xx_hal_i2s_ex.c **** 
 647              		.loc 1 323 11 view .LVU210
 648 01c4 049B     		ldr	r3, [sp, #16]
 649              	.LBE5:
 323:Drivers/STM32F4xx_HAL_Driver/Src/stm32f4xx_hal_i2s_ex.c **** 
 650              		.loc 1 323 11 view .LVU211
 326:Drivers/STM32F4xx_HAL_Driver/Src/stm32f4xx_hal_i2s_ex.c ****         }
 651              		.loc 1 326 11 view .LVU212
 652 01c6 636C     		ldr	r3, [r4, #68]
 653 01c8 43F00203 		orr	r3, r3, #2
 654 01cc 6364     		str	r3, [r4, #68]
 655 01ce 90E7     		b	.L44
 656              	.L87:
 308:Drivers/STM32F4xx_HAL_Driver/Src/stm32f4xx_hal_i2s_ex.c ****           hi2s->State = HAL_I2S_STATE_READY;
 657              		.loc 1 308 11 view .LVU213
 658 01d0 636C     		ldr	r3, [r4, #68]
 659 01d2 43F00103 		orr	r3, r3, #1
 660 01d6 6364     		str	r3, [r4, #68]
 309:Drivers/STM32F4xx_HAL_Driver/Src/stm32f4xx_hal_i2s_ex.c **** 
 661              		.loc 1 309 11 view .LVU214
 309:Drivers/STM32F4xx_HAL_Driver/Src/stm32f4xx_hal_i2s_ex.c **** 
 662              		.loc 1 309 23 is_stmt 0 view .LVU215
 663 01d8 0123     		movs	r3, #1
 664 01da 84F84130 		strb	r3, [r4, #65]
 312:Drivers/STM32F4xx_HAL_Driver/Src/stm32f4xx_hal_i2s_ex.c ****           return HAL_ERROR;
 665              		.loc 1 312 11 is_stmt 1 view .LVU216
 312:Drivers/STM32F4xx_HAL_Driver/Src/stm32f4xx_hal_i2s_ex.c ****           return HAL_ERROR;
 666              		.loc 1 312 11 view .LVU217
 667 01de 0023     		movs	r3, #0
 668 01e0 84F84030 		strb	r3, [r4, #64]
 312:Drivers/STM32F4xx_HAL_Driver/Src/stm32f4xx_hal_i2s_ex.c ****           return HAL_ERROR;
 669              		.loc 1 312 11 view .LVU218
 313:Drivers/STM32F4xx_HAL_Driver/Src/stm32f4xx_hal_i2s_ex.c ****         }
 670              		.loc 1 313 11 view .LVU219
 313:Drivers/STM32F4xx_HAL_Driver/Src/stm32f4xx_hal_i2s_ex.c ****         }
 671              		.loc 1 313 18 is_stmt 0 view .LVU220
 672 01e4 B7E0     		b	.L35
 673              	.L88:
 316:Drivers/STM32F4xx_HAL_Driver/Src/stm32f4xx_hal_i2s_ex.c ****         hi2s->RxXferCount--;
 674              		.loc 1 316 24 view .LVU221
 675 01e6 A3F58063 		sub	r3, r3, #1024
 676 01ea D3E7     		b	.L49
 677              	.L89:
 320:Drivers/STM32F4xx_HAL_Driver/Src/stm32f4xx_hal_i2s_ex.c ****         {
 678              		.loc 1 320 13 view .LVU222
 679 01ec A2F58062 		sub	r2, r2, #1024
 680 01f0 DEE7     		b	.L50
 681              	.LVL26:
 682              	.L40:
ARM GAS  C:\Users\ridel\AppData\Local\Temp\ccOCejYh.s 			page 36


 335:Drivers/STM32F4xx_HAL_Driver/Src/stm32f4xx_hal_i2s_ex.c ****     hi2s->TxXferCount--;
 683              		.loc 1 335 5 is_stmt 1 view .LVU223
 335:Drivers/STM32F4xx_HAL_Driver/Src/stm32f4xx_hal_i2s_ex.c ****     hi2s->TxXferCount--;
 684              		.loc 1 335 44 is_stmt 0 view .LVU224
 685 01f2 0D46     		mov	r5, r1
 686              	.LVL27:
 335:Drivers/STM32F4xx_HAL_Driver/Src/stm32f4xx_hal_i2s_ex.c ****     hi2s->TxXferCount--;
 687              		.loc 1 335 36 view .LVU225
 688 01f4 35F8022B 		ldrh	r2, [r5], #2
 689              	.LVL28:
 335:Drivers/STM32F4xx_HAL_Driver/Src/stm32f4xx_hal_i2s_ex.c ****     hi2s->TxXferCount--;
 690              		.loc 1 335 5 view .LVU226
 691 01f8 3D4B     		ldr	r3, .L98
 692 01fa 9842     		cmp	r0, r3
 693 01fc 25D0     		beq	.L90
 694 01fe 4FF04023 		mov	r3, #1073758208
 695              	.L53:
 335:Drivers/STM32F4xx_HAL_Driver/Src/stm32f4xx_hal_i2s_ex.c ****     hi2s->TxXferCount--;
 696              		.loc 1 335 33 discriminator 4 view .LVU227
 697 0202 DA60     		str	r2, [r3, #12]
 336:Drivers/STM32F4xx_HAL_Driver/Src/stm32f4xx_hal_i2s_ex.c **** 
 698              		.loc 1 336 5 is_stmt 1 discriminator 4 view .LVU228
 336:Drivers/STM32F4xx_HAL_Driver/Src/stm32f4xx_hal_i2s_ex.c **** 
 699              		.loc 1 336 9 is_stmt 0 discriminator 4 view .LVU229
 700 0204 638D     		ldrh	r3, [r4, #42]
 701 0206 9BB2     		uxth	r3, r3
 336:Drivers/STM32F4xx_HAL_Driver/Src/stm32f4xx_hal_i2s_ex.c **** 
 702              		.loc 1 336 22 discriminator 4 view .LVU230
 703 0208 013B     		subs	r3, r3, #1
 704 020a 9BB2     		uxth	r3, r3
 705 020c 6385     		strh	r3, [r4, #42]	@ movhi
 339:Drivers/STM32F4xx_HAL_Driver/Src/stm32f4xx_hal_i2s_ex.c **** 
 706              		.loc 1 339 5 is_stmt 1 discriminator 4 view .LVU231
 707 020e 2268     		ldr	r2, [r4]
 708 0210 374B     		ldr	r3, .L98
 709 0212 9A42     		cmp	r2, r3
 710 0214 1CD0     		beq	.L91
 339:Drivers/STM32F4xx_HAL_Driver/Src/stm32f4xx_hal_i2s_ex.c **** 
 711              		.loc 1 339 5 is_stmt 0 view .LVU232
 712 0216 4FF04022 		mov	r2, #1073758208
 713              	.L54:
 339:Drivers/STM32F4xx_HAL_Driver/Src/stm32f4xx_hal_i2s_ex.c **** 
 714              		.loc 1 339 5 discriminator 4 view .LVU233
 715 021a D369     		ldr	r3, [r2, #28]
 716 021c 43F48063 		orr	r3, r3, #1024
 717 0220 D361     		str	r3, [r2, #28]
 342:Drivers/STM32F4xx_HAL_Driver/Src/stm32f4xx_hal_i2s_ex.c **** 
 718              		.loc 1 342 5 is_stmt 1 discriminator 4 view .LVU234
 719 0222 2268     		ldr	r2, [r4]
 720 0224 D369     		ldr	r3, [r2, #28]
 721 0226 43F48063 		orr	r3, r3, #1024
 722 022a D361     		str	r3, [r2, #28]
 345:Drivers/STM32F4xx_HAL_Driver/Src/stm32f4xx_hal_i2s_ex.c ****     {
 723              		.loc 1 345 5 discriminator 4 view .LVU235
 345:Drivers/STM32F4xx_HAL_Driver/Src/stm32f4xx_hal_i2s_ex.c ****     {
 724              		.loc 1 345 14 is_stmt 0 discriminator 4 view .LVU236
 725 022c 2268     		ldr	r2, [r4]
ARM GAS  C:\Users\ridel\AppData\Local\Temp\ccOCejYh.s 			page 37


 345:Drivers/STM32F4xx_HAL_Driver/Src/stm32f4xx_hal_i2s_ex.c ****     {
 726              		.loc 1 345 24 discriminator 4 view .LVU237
 727 022e D369     		ldr	r3, [r2, #28]
 345:Drivers/STM32F4xx_HAL_Driver/Src/stm32f4xx_hal_i2s_ex.c ****     {
 728              		.loc 1 345 34 discriminator 4 view .LVU238
 729 0230 03F44073 		and	r3, r3, #768
 345:Drivers/STM32F4xx_HAL_Driver/Src/stm32f4xx_hal_i2s_ex.c ****     {
 730              		.loc 1 345 8 discriminator 4 view .LVU239
 731 0234 B3F5407F 		cmp	r3, #768
 732 0238 13D1     		bne	.L56
 349:Drivers/STM32F4xx_HAL_Driver/Src/stm32f4xx_hal_i2s_ex.c ****     }
 733              		.loc 1 349 7 is_stmt 1 view .LVU240
 734              	.LBB6:
 349:Drivers/STM32F4xx_HAL_Driver/Src/stm32f4xx_hal_i2s_ex.c ****     }
 735              		.loc 1 349 7 view .LVU241
 736 023a 0023     		movs	r3, #0
 737 023c 0593     		str	r3, [sp, #20]
 349:Drivers/STM32F4xx_HAL_Driver/Src/stm32f4xx_hal_i2s_ex.c ****     }
 738              		.loc 1 349 7 view .LVU242
 739 023e D368     		ldr	r3, [r2, #12]
 740 0240 0593     		str	r3, [sp, #20]
 349:Drivers/STM32F4xx_HAL_Driver/Src/stm32f4xx_hal_i2s_ex.c ****     }
 741              		.loc 1 349 7 view .LVU243
 742 0242 9368     		ldr	r3, [r2, #8]
 743 0244 0593     		str	r3, [sp, #20]
 349:Drivers/STM32F4xx_HAL_Driver/Src/stm32f4xx_hal_i2s_ex.c ****     }
 744              		.loc 1 349 7 view .LVU244
 745 0246 059B     		ldr	r3, [sp, #20]
 746 0248 0BE0     		b	.L56
 747              	.L90:
 349:Drivers/STM32F4xx_HAL_Driver/Src/stm32f4xx_hal_i2s_ex.c ****     }
 748              		.loc 1 349 7 is_stmt 0 view .LVU245
 749              	.LBE6:
 335:Drivers/STM32F4xx_HAL_Driver/Src/stm32f4xx_hal_i2s_ex.c ****     hi2s->TxXferCount--;
 750              		.loc 1 335 5 view .LVU246
 751 024a A3F58063 		sub	r3, r3, #1024
 752 024e D8E7     		b	.L53
 753              	.L91:
 339:Drivers/STM32F4xx_HAL_Driver/Src/stm32f4xx_hal_i2s_ex.c **** 
 754              		.loc 1 339 5 view .LVU247
 755 0250 284A     		ldr	r2, .L98+4
 756 0252 E2E7     		b	.L54
 757              	.L63:
 354:Drivers/STM32F4xx_HAL_Driver/Src/stm32f4xx_hal_i2s_ex.c ****       {
 758              		.loc 1 354 7 is_stmt 1 view .LVU248
 354:Drivers/STM32F4xx_HAL_Driver/Src/stm32f4xx_hal_i2s_ex.c ****       {
 759              		.loc 1 354 15 is_stmt 0 view .LVU249
 760 0254 638D     		ldrh	r3, [r4, #42]
 761 0256 9BB2     		uxth	r3, r3
 354:Drivers/STM32F4xx_HAL_Driver/Src/stm32f4xx_hal_i2s_ex.c ****       {
 762              		.loc 1 354 10 view .LVU250
 763 0258 63B9     		cbnz	r3, .L92
 764              	.L57:
 381:Drivers/STM32F4xx_HAL_Driver/Src/stm32f4xx_hal_i2s_ex.c ****       {
 765              		.loc 1 381 7 is_stmt 1 view .LVU251
 381:Drivers/STM32F4xx_HAL_Driver/Src/stm32f4xx_hal_i2s_ex.c ****       {
 766              		.loc 1 381 15 is_stmt 0 view .LVU252
ARM GAS  C:\Users\ridel\AppData\Local\Temp\ccOCejYh.s 			page 38


 767 025a 638E     		ldrh	r3, [r4, #50]
 768 025c 9BB2     		uxth	r3, r3
 381:Drivers/STM32F4xx_HAL_Driver/Src/stm32f4xx_hal_i2s_ex.c ****       {
 769              		.loc 1 381 10 view .LVU253
 770 025e 002B     		cmp	r3, #0
 771 0260 4AD1     		bne	.L93
 772              	.L56:
 352:Drivers/STM32F4xx_HAL_Driver/Src/stm32f4xx_hal_i2s_ex.c ****     {
 773              		.loc 1 352 11 is_stmt 1 view .LVU254
 352:Drivers/STM32F4xx_HAL_Driver/Src/stm32f4xx_hal_i2s_ex.c ****     {
 774              		.loc 1 352 17 is_stmt 0 view .LVU255
 775 0262 638E     		ldrh	r3, [r4, #50]
 776 0264 9BB2     		uxth	r3, r3
 352:Drivers/STM32F4xx_HAL_Driver/Src/stm32f4xx_hal_i2s_ex.c ****     {
 777              		.loc 1 352 11 view .LVU256
 778 0266 002B     		cmp	r3, #0
 779 0268 F4D1     		bne	.L63
 352:Drivers/STM32F4xx_HAL_Driver/Src/stm32f4xx_hal_i2s_ex.c ****     {
 780              		.loc 1 352 45 discriminator 1 view .LVU257
 781 026a 638D     		ldrh	r3, [r4, #42]
 782 026c 9BB2     		uxth	r3, r3
 352:Drivers/STM32F4xx_HAL_Driver/Src/stm32f4xx_hal_i2s_ex.c ****     {
 783              		.loc 1 352 37 discriminator 1 view .LVU258
 784 026e 002B     		cmp	r3, #0
 785 0270 F0D1     		bne	.L63
 786 0272 46E7     		b	.L52
 787              	.L92:
 357:Drivers/STM32F4xx_HAL_Driver/Src/stm32f4xx_hal_i2s_ex.c ****         {
 788              		.loc 1 357 9 is_stmt 1 view .LVU259
 357:Drivers/STM32F4xx_HAL_Driver/Src/stm32f4xx_hal_i2s_ex.c ****         {
 789              		.loc 1 357 13 is_stmt 0 view .LVU260
 790 0274 0122     		movs	r2, #1
 791 0276 0092     		str	r2, [sp]
 792 0278 4346     		mov	r3, r8
 793 027a 0221     		movs	r1, #2
 794 027c 2046     		mov	r0, r4
 795 027e FFF7FEFF 		bl	I2SEx_FullDuplexWaitFlagStateUntilTimeout
 796              	.LVL29:
 357:Drivers/STM32F4xx_HAL_Driver/Src/stm32f4xx_hal_i2s_ex.c ****         {
 797              		.loc 1 357 12 view .LVU261
 798 0282 20BB     		cbnz	r0, .L94
 368:Drivers/STM32F4xx_HAL_Driver/Src/stm32f4xx_hal_i2s_ex.c ****         hi2s->TxXferCount--;
 799              		.loc 1 368 9 is_stmt 1 view .LVU262
 800              	.LVL30:
 368:Drivers/STM32F4xx_HAL_Driver/Src/stm32f4xx_hal_i2s_ex.c ****         hi2s->TxXferCount--;
 801              		.loc 1 368 40 is_stmt 0 view .LVU263
 802 0284 35F8022B 		ldrh	r2, [r5], #2
 803              	.LVL31:
 368:Drivers/STM32F4xx_HAL_Driver/Src/stm32f4xx_hal_i2s_ex.c ****         hi2s->TxXferCount--;
 804              		.loc 1 368 9 view .LVU264
 805 0288 2168     		ldr	r1, [r4]
 806 028a 194B     		ldr	r3, .L98
 807 028c 9942     		cmp	r1, r3
 808 028e 29D0     		beq	.L95
 809 0290 4FF04023 		mov	r3, #1073758208
 810              	.L59:
 368:Drivers/STM32F4xx_HAL_Driver/Src/stm32f4xx_hal_i2s_ex.c ****         hi2s->TxXferCount--;
ARM GAS  C:\Users\ridel\AppData\Local\Temp\ccOCejYh.s 			page 39


 811              		.loc 1 368 37 discriminator 4 view .LVU265
 812 0294 DA60     		str	r2, [r3, #12]
 369:Drivers/STM32F4xx_HAL_Driver/Src/stm32f4xx_hal_i2s_ex.c **** 
 813              		.loc 1 369 9 is_stmt 1 discriminator 4 view .LVU266
 369:Drivers/STM32F4xx_HAL_Driver/Src/stm32f4xx_hal_i2s_ex.c **** 
 814              		.loc 1 369 13 is_stmt 0 discriminator 4 view .LVU267
 815 0296 638D     		ldrh	r3, [r4, #42]
 816 0298 9BB2     		uxth	r3, r3
 369:Drivers/STM32F4xx_HAL_Driver/Src/stm32f4xx_hal_i2s_ex.c **** 
 817              		.loc 1 369 26 discriminator 4 view .LVU268
 818 029a 013B     		subs	r3, r3, #1
 819 029c 9BB2     		uxth	r3, r3
 820 029e 6385     		strh	r3, [r4, #42]	@ movhi
 372:Drivers/STM32F4xx_HAL_Driver/Src/stm32f4xx_hal_i2s_ex.c ****         {
 821              		.loc 1 372 9 is_stmt 1 discriminator 4 view .LVU269
 372:Drivers/STM32F4xx_HAL_Driver/Src/stm32f4xx_hal_i2s_ex.c ****         {
 822              		.loc 1 372 14 is_stmt 0 discriminator 4 view .LVU270
 823 02a0 2368     		ldr	r3, [r4]
 824 02a2 134A     		ldr	r2, .L98
 825 02a4 9342     		cmp	r3, r2
 826 02a6 20D0     		beq	.L96
 372:Drivers/STM32F4xx_HAL_Driver/Src/stm32f4xx_hal_i2s_ex.c ****         {
 827              		.loc 1 372 14 view .LVU271
 828 02a8 4FF04022 		mov	r2, #1073758208
 829              	.L60:
 372:Drivers/STM32F4xx_HAL_Driver/Src/stm32f4xx_hal_i2s_ex.c ****         {
 830              		.loc 1 372 14 discriminator 4 view .LVU272
 831 02ac 9268     		ldr	r2, [r2, #8]
 372:Drivers/STM32F4xx_HAL_Driver/Src/stm32f4xx_hal_i2s_ex.c ****         {
 832              		.loc 1 372 12 discriminator 4 view .LVU273
 833 02ae 12F0080F 		tst	r2, #8
 834 02b2 D2D0     		beq	.L57
 372:Drivers/STM32F4xx_HAL_Driver/Src/stm32f4xx_hal_i2s_ex.c ****         {
 835              		.loc 1 372 64 discriminator 5 view .LVU274
 836 02b4 B9F5807F 		cmp	r9, #256
 837 02b8 CFD1     		bne	.L57
 375:Drivers/STM32F4xx_HAL_Driver/Src/stm32f4xx_hal_i2s_ex.c **** 
 838              		.loc 1 375 11 is_stmt 1 view .LVU275
 839              	.LBB7:
 375:Drivers/STM32F4xx_HAL_Driver/Src/stm32f4xx_hal_i2s_ex.c **** 
 840              		.loc 1 375 11 view .LVU276
 841 02ba 0022     		movs	r2, #0
 842 02bc 0692     		str	r2, [sp, #24]
 375:Drivers/STM32F4xx_HAL_Driver/Src/stm32f4xx_hal_i2s_ex.c **** 
 843              		.loc 1 375 11 view .LVU277
 844 02be 9B68     		ldr	r3, [r3, #8]
 845 02c0 0693     		str	r3, [sp, #24]
 375:Drivers/STM32F4xx_HAL_Driver/Src/stm32f4xx_hal_i2s_ex.c **** 
 846              		.loc 1 375 11 view .LVU278
 847 02c2 069B     		ldr	r3, [sp, #24]
 848              	.LBE7:
 375:Drivers/STM32F4xx_HAL_Driver/Src/stm32f4xx_hal_i2s_ex.c **** 
 849              		.loc 1 375 11 view .LVU279
 378:Drivers/STM32F4xx_HAL_Driver/Src/stm32f4xx_hal_i2s_ex.c ****         }
 850              		.loc 1 378 11 view .LVU280
 851 02c4 636C     		ldr	r3, [r4, #68]
 852 02c6 43F00403 		orr	r3, r3, #4
ARM GAS  C:\Users\ridel\AppData\Local\Temp\ccOCejYh.s 			page 40


 853 02ca 6364     		str	r3, [r4, #68]
 854 02cc C5E7     		b	.L57
 855              	.L94:
 360:Drivers/STM32F4xx_HAL_Driver/Src/stm32f4xx_hal_i2s_ex.c ****           hi2s->State = HAL_I2S_STATE_READY;
 856              		.loc 1 360 11 view .LVU281
 857 02ce 636C     		ldr	r3, [r4, #68]
 858 02d0 43F00103 		orr	r3, r3, #1
 859 02d4 6364     		str	r3, [r4, #68]
 361:Drivers/STM32F4xx_HAL_Driver/Src/stm32f4xx_hal_i2s_ex.c **** 
 860              		.loc 1 361 11 view .LVU282
 361:Drivers/STM32F4xx_HAL_Driver/Src/stm32f4xx_hal_i2s_ex.c **** 
 861              		.loc 1 361 23 is_stmt 0 view .LVU283
 862 02d6 0123     		movs	r3, #1
 863 02d8 84F84130 		strb	r3, [r4, #65]
 364:Drivers/STM32F4xx_HAL_Driver/Src/stm32f4xx_hal_i2s_ex.c ****           return HAL_ERROR;
 864              		.loc 1 364 11 is_stmt 1 view .LVU284
 364:Drivers/STM32F4xx_HAL_Driver/Src/stm32f4xx_hal_i2s_ex.c ****           return HAL_ERROR;
 865              		.loc 1 364 11 view .LVU285
 866 02dc 0023     		movs	r3, #0
 867 02de 84F84030 		strb	r3, [r4, #64]
 364:Drivers/STM32F4xx_HAL_Driver/Src/stm32f4xx_hal_i2s_ex.c ****           return HAL_ERROR;
 868              		.loc 1 364 11 view .LVU286
 365:Drivers/STM32F4xx_HAL_Driver/Src/stm32f4xx_hal_i2s_ex.c ****         }
 869              		.loc 1 365 11 view .LVU287
 365:Drivers/STM32F4xx_HAL_Driver/Src/stm32f4xx_hal_i2s_ex.c ****         }
 870              		.loc 1 365 18 is_stmt 0 view .LVU288
 871 02e2 38E0     		b	.L35
 872              	.L95:
 368:Drivers/STM32F4xx_HAL_Driver/Src/stm32f4xx_hal_i2s_ex.c ****         hi2s->TxXferCount--;
 873              		.loc 1 368 9 view .LVU289
 874 02e4 A3F58063 		sub	r3, r3, #1024
 875 02e8 D4E7     		b	.L59
 876              	.L96:
 372:Drivers/STM32F4xx_HAL_Driver/Src/stm32f4xx_hal_i2s_ex.c ****         {
 877              		.loc 1 372 14 view .LVU290
 878 02ea A2F58062 		sub	r2, r2, #1024
 879 02ee DDE7     		b	.L60
 880              	.L99:
 881              		.align	2
 882              	.L98:
 883 02f0 00380040 		.word	1073756160
 884 02f4 00340040 		.word	1073755136
 885              	.L93:
 384:Drivers/STM32F4xx_HAL_Driver/Src/stm32f4xx_hal_i2s_ex.c ****         {
 886              		.loc 1 384 9 is_stmt 1 view .LVU291
 384:Drivers/STM32F4xx_HAL_Driver/Src/stm32f4xx_hal_i2s_ex.c ****         {
 887              		.loc 1 384 13 is_stmt 0 view .LVU292
 888 02f8 0023     		movs	r3, #0
 889 02fa 0093     		str	r3, [sp]
 890 02fc 4346     		mov	r3, r8
 891 02fe 0122     		movs	r2, #1
 892 0300 1146     		mov	r1, r2
 893 0302 2046     		mov	r0, r4
 894 0304 FFF7FEFF 		bl	I2SEx_FullDuplexWaitFlagStateUntilTimeout
 895              	.LVL32:
 384:Drivers/STM32F4xx_HAL_Driver/Src/stm32f4xx_hal_i2s_ex.c ****         {
 896              		.loc 1 384 12 view .LVU293
ARM GAS  C:\Users\ridel\AppData\Local\Temp\ccOCejYh.s 			page 41


 897 0308 C8B9     		cbnz	r0, .L97
 395:Drivers/STM32F4xx_HAL_Driver/Src/stm32f4xx_hal_i2s_ex.c ****         hi2s->RxXferCount--;
 898              		.loc 1 395 9 is_stmt 1 view .LVU294
 395:Drivers/STM32F4xx_HAL_Driver/Src/stm32f4xx_hal_i2s_ex.c ****         hi2s->RxXferCount--;
 899              		.loc 1 395 28 is_stmt 0 view .LVU295
 900 030a 2368     		ldr	r3, [r4]
 395:Drivers/STM32F4xx_HAL_Driver/Src/stm32f4xx_hal_i2s_ex.c ****         hi2s->RxXferCount--;
 901              		.loc 1 395 38 view .LVU296
 902 030c DB68     		ldr	r3, [r3, #12]
 903              	.LVL33:
 395:Drivers/STM32F4xx_HAL_Driver/Src/stm32f4xx_hal_i2s_ex.c ****         hi2s->RxXferCount--;
 904              		.loc 1 395 22 view .LVU297
 905 030e 26F8023B 		strh	r3, [r6], #2	@ movhi
 906              	.LVL34:
 396:Drivers/STM32F4xx_HAL_Driver/Src/stm32f4xx_hal_i2s_ex.c **** 
 907              		.loc 1 396 9 is_stmt 1 view .LVU298
 396:Drivers/STM32F4xx_HAL_Driver/Src/stm32f4xx_hal_i2s_ex.c **** 
 908              		.loc 1 396 13 is_stmt 0 view .LVU299
 909 0312 638E     		ldrh	r3, [r4, #50]
 910 0314 9BB2     		uxth	r3, r3
 396:Drivers/STM32F4xx_HAL_Driver/Src/stm32f4xx_hal_i2s_ex.c **** 
 911              		.loc 1 396 26 view .LVU300
 912 0316 013B     		subs	r3, r3, #1
 913 0318 9BB2     		uxth	r3, r3
 914 031a 6386     		strh	r3, [r4, #50]	@ movhi
 399:Drivers/STM32F4xx_HAL_Driver/Src/stm32f4xx_hal_i2s_ex.c ****         {
 915              		.loc 1 399 9 is_stmt 1 view .LVU301
 399:Drivers/STM32F4xx_HAL_Driver/Src/stm32f4xx_hal_i2s_ex.c ****         {
 916              		.loc 1 399 13 is_stmt 0 view .LVU302
 917 031c 2368     		ldr	r3, [r4]
 918 031e 9A68     		ldr	r2, [r3, #8]
 399:Drivers/STM32F4xx_HAL_Driver/Src/stm32f4xx_hal_i2s_ex.c ****         {
 919              		.loc 1 399 12 view .LVU303
 920 0320 12F0400F 		tst	r2, #64
 921 0324 9DD0     		beq	.L56
 402:Drivers/STM32F4xx_HAL_Driver/Src/stm32f4xx_hal_i2s_ex.c **** 
 922              		.loc 1 402 11 is_stmt 1 view .LVU304
 923              	.LBB8:
 402:Drivers/STM32F4xx_HAL_Driver/Src/stm32f4xx_hal_i2s_ex.c **** 
 924              		.loc 1 402 11 view .LVU305
 925 0326 0022     		movs	r2, #0
 926 0328 0792     		str	r2, [sp, #28]
 402:Drivers/STM32F4xx_HAL_Driver/Src/stm32f4xx_hal_i2s_ex.c **** 
 927              		.loc 1 402 11 view .LVU306
 928 032a DA68     		ldr	r2, [r3, #12]
 929 032c 0792     		str	r2, [sp, #28]
 402:Drivers/STM32F4xx_HAL_Driver/Src/stm32f4xx_hal_i2s_ex.c **** 
 930              		.loc 1 402 11 view .LVU307
 931 032e 9B68     		ldr	r3, [r3, #8]
 932 0330 0793     		str	r3, [sp, #28]
 402:Drivers/STM32F4xx_HAL_Driver/Src/stm32f4xx_hal_i2s_ex.c **** 
 933              		.loc 1 402 11 view .LVU308
 934 0332 079B     		ldr	r3, [sp, #28]
 935              	.LBE8:
 402:Drivers/STM32F4xx_HAL_Driver/Src/stm32f4xx_hal_i2s_ex.c **** 
 936              		.loc 1 402 11 view .LVU309
 405:Drivers/STM32F4xx_HAL_Driver/Src/stm32f4xx_hal_i2s_ex.c ****         }
ARM GAS  C:\Users\ridel\AppData\Local\Temp\ccOCejYh.s 			page 42


 937              		.loc 1 405 11 view .LVU310
 938 0334 636C     		ldr	r3, [r4, #68]
 939 0336 43F00203 		orr	r3, r3, #2
 940 033a 6364     		str	r3, [r4, #68]
 941 033c 91E7     		b	.L56
 942              	.L97:
 387:Drivers/STM32F4xx_HAL_Driver/Src/stm32f4xx_hal_i2s_ex.c ****           hi2s->State = HAL_I2S_STATE_READY;
 943              		.loc 1 387 11 view .LVU311
 944 033e 636C     		ldr	r3, [r4, #68]
 945 0340 43F00103 		orr	r3, r3, #1
 946 0344 6364     		str	r3, [r4, #68]
 388:Drivers/STM32F4xx_HAL_Driver/Src/stm32f4xx_hal_i2s_ex.c **** 
 947              		.loc 1 388 11 view .LVU312
 388:Drivers/STM32F4xx_HAL_Driver/Src/stm32f4xx_hal_i2s_ex.c **** 
 948              		.loc 1 388 23 is_stmt 0 view .LVU313
 949 0346 0123     		movs	r3, #1
 950 0348 84F84130 		strb	r3, [r4, #65]
 391:Drivers/STM32F4xx_HAL_Driver/Src/stm32f4xx_hal_i2s_ex.c ****           return HAL_ERROR;
 951              		.loc 1 391 11 is_stmt 1 view .LVU314
 391:Drivers/STM32F4xx_HAL_Driver/Src/stm32f4xx_hal_i2s_ex.c ****           return HAL_ERROR;
 952              		.loc 1 391 11 view .LVU315
 953 034c 0023     		movs	r3, #0
 954 034e 84F84030 		strb	r3, [r4, #64]
 391:Drivers/STM32F4xx_HAL_Driver/Src/stm32f4xx_hal_i2s_ex.c ****           return HAL_ERROR;
 955              		.loc 1 391 11 view .LVU316
 392:Drivers/STM32F4xx_HAL_Driver/Src/stm32f4xx_hal_i2s_ex.c ****         }
 956              		.loc 1 392 11 view .LVU317
 392:Drivers/STM32F4xx_HAL_Driver/Src/stm32f4xx_hal_i2s_ex.c ****         }
 957              		.loc 1 392 18 is_stmt 0 view .LVU318
 958 0352 00E0     		b	.L35
 959              	.LVL35:
 960              	.L64:
 216:Drivers/STM32F4xx_HAL_Driver/Src/stm32f4xx_hal_i2s_ex.c ****   }
 961              		.loc 1 216 12 view .LVU319
 962 0354 0227     		movs	r7, #2
 963              	.LVL36:
 964              	.L35:
 422:Drivers/STM32F4xx_HAL_Driver/Src/stm32f4xx_hal_i2s_ex.c **** 
 965              		.loc 1 422 1 view .LVU320
 966 0356 3846     		mov	r0, r7
 967 0358 09B0     		add	sp, sp, #36
 968              	.LCFI4:
 969              		.cfi_remember_state
 970              		.cfi_def_cfa_offset 28
 971              		@ sp needed
 972 035a BDE8F083 		pop	{r4, r5, r6, r7, r8, r9, pc}
 973              	.LVL37:
 974              	.L65:
 975              	.LCFI5:
 976              		.cfi_restore_state
 225:Drivers/STM32F4xx_HAL_Driver/Src/stm32f4xx_hal_i2s_ex.c **** 
 977              		.loc 1 225 3 view .LVU321
 978 035e 0227     		movs	r7, #2
 979 0360 F9E7     		b	.L35
 980              		.cfi_endproc
 981              	.LFE134:
 983 0362 00BF     		.section	.text.HAL_I2SEx_TransmitReceive_IT,"ax",%progbits
ARM GAS  C:\Users\ridel\AppData\Local\Temp\ccOCejYh.s 			page 43


 984              		.align	1
 985              		.global	HAL_I2SEx_TransmitReceive_IT
 986              		.syntax unified
 987              		.thumb
 988              		.thumb_func
 990              	HAL_I2SEx_TransmitReceive_IT:
 991              	.LVL38:
 992              	.LFB135:
 443:Drivers/STM32F4xx_HAL_Driver/Src/stm32f4xx_hal_i2s_ex.c ****   uint32_t tmp1 = 0U;
 993              		.loc 1 443 1 is_stmt 1 view -0
 994              		.cfi_startproc
 995              		@ args = 0, pretend = 0, frame = 0
 996              		@ frame_needed = 0, uses_anonymous_args = 0
 997              		@ link register save eliminated.
 443:Drivers/STM32F4xx_HAL_Driver/Src/stm32f4xx_hal_i2s_ex.c ****   uint32_t tmp1 = 0U;
 998              		.loc 1 443 1 is_stmt 0 view .LVU323
 999 0000 8446     		mov	ip, r0
 444:Drivers/STM32F4xx_HAL_Driver/Src/stm32f4xx_hal_i2s_ex.c **** 
 1000              		.loc 1 444 3 is_stmt 1 view .LVU324
 1001              	.LVL39:
 446:Drivers/STM32F4xx_HAL_Driver/Src/stm32f4xx_hal_i2s_ex.c ****   {
 1002              		.loc 1 446 3 view .LVU325
 446:Drivers/STM32F4xx_HAL_Driver/Src/stm32f4xx_hal_i2s_ex.c ****   {
 1003              		.loc 1 446 11 is_stmt 0 view .LVU326
 1004 0002 90F84100 		ldrb	r0, [r0, #65]	@ zero_extendqisi2
 1005              	.LVL40:
 446:Drivers/STM32F4xx_HAL_Driver/Src/stm32f4xx_hal_i2s_ex.c ****   {
 1006              		.loc 1 446 11 view .LVU327
 1007 0006 C0B2     		uxtb	r0, r0
 446:Drivers/STM32F4xx_HAL_Driver/Src/stm32f4xx_hal_i2s_ex.c ****   {
 1008              		.loc 1 446 6 view .LVU328
 1009 0008 0128     		cmp	r0, #1
 1010 000a 40F0BE80 		bne	.L113
 451:Drivers/STM32F4xx_HAL_Driver/Src/stm32f4xx_hal_i2s_ex.c ****   {
 1011              		.loc 1 451 3 is_stmt 1 view .LVU329
 451:Drivers/STM32F4xx_HAL_Driver/Src/stm32f4xx_hal_i2s_ex.c ****   {
 1012              		.loc 1 451 6 is_stmt 0 view .LVU330
 1013 000e 0029     		cmp	r1, #0
 1014 0010 00F0BE80 		beq	.L101
 451:Drivers/STM32F4xx_HAL_Driver/Src/stm32f4xx_hal_i2s_ex.c ****   {
 1015              		.loc 1 451 25 discriminator 1 view .LVU331
 1016 0014 002A     		cmp	r2, #0
 1017 0016 00F0BB80 		beq	.L101
 451:Drivers/STM32F4xx_HAL_Driver/Src/stm32f4xx_hal_i2s_ex.c ****   {
 1018              		.loc 1 451 46 discriminator 2 view .LVU332
 1019 001a 002B     		cmp	r3, #0
 1020 001c 00F0B880 		beq	.L101
 457:Drivers/STM32F4xx_HAL_Driver/Src/stm32f4xx_hal_i2s_ex.c **** 
 1021              		.loc 1 457 3 is_stmt 1 view .LVU333
 457:Drivers/STM32F4xx_HAL_Driver/Src/stm32f4xx_hal_i2s_ex.c **** 
 1022              		.loc 1 457 3 view .LVU334
 1023 0020 9CF84000 		ldrb	r0, [ip, #64]	@ zero_extendqisi2
 1024 0024 C0B2     		uxtb	r0, r0
 1025 0026 0128     		cmp	r0, #1
 1026 0028 00F0B180 		beq	.L114
 457:Drivers/STM32F4xx_HAL_Driver/Src/stm32f4xx_hal_i2s_ex.c **** 
 1027              		.loc 1 457 3 discriminator 2 view .LVU335
ARM GAS  C:\Users\ridel\AppData\Local\Temp\ccOCejYh.s 			page 44


 1028 002c 0120     		movs	r0, #1
 1029 002e 8CF84000 		strb	r0, [ip, #64]
 457:Drivers/STM32F4xx_HAL_Driver/Src/stm32f4xx_hal_i2s_ex.c **** 
 1030              		.loc 1 457 3 discriminator 2 view .LVU336
 459:Drivers/STM32F4xx_HAL_Driver/Src/stm32f4xx_hal_i2s_ex.c ****   hi2s->pRxBuffPtr = pRxData;
 1031              		.loc 1 459 3 discriminator 2 view .LVU337
 459:Drivers/STM32F4xx_HAL_Driver/Src/stm32f4xx_hal_i2s_ex.c ****   hi2s->pRxBuffPtr = pRxData;
 1032              		.loc 1 459 20 is_stmt 0 discriminator 2 view .LVU338
 1033 0032 CCF82410 		str	r1, [ip, #36]
 460:Drivers/STM32F4xx_HAL_Driver/Src/stm32f4xx_hal_i2s_ex.c **** 
 1034              		.loc 1 460 3 is_stmt 1 discriminator 2 view .LVU339
 460:Drivers/STM32F4xx_HAL_Driver/Src/stm32f4xx_hal_i2s_ex.c **** 
 1035              		.loc 1 460 20 is_stmt 0 discriminator 2 view .LVU340
 1036 0036 CCF82C20 		str	r2, [ip, #44]
 462:Drivers/STM32F4xx_HAL_Driver/Src/stm32f4xx_hal_i2s_ex.c ****   /* Check the Data format: When a 16-bit data frame or a 16-bit data frame extended
 1037              		.loc 1 462 3 is_stmt 1 discriminator 2 view .LVU341
 462:Drivers/STM32F4xx_HAL_Driver/Src/stm32f4xx_hal_i2s_ex.c ****   /* Check the Data format: When a 16-bit data frame or a 16-bit data frame extended
 1038              		.loc 1 462 14 is_stmt 0 discriminator 2 view .LVU342
 1039 003a DCF80010 		ldr	r1, [ip]
 1040              	.LVL41:
 462:Drivers/STM32F4xx_HAL_Driver/Src/stm32f4xx_hal_i2s_ex.c ****   /* Check the Data format: When a 16-bit data frame or a 16-bit data frame extended
 1041              		.loc 1 462 24 discriminator 2 view .LVU343
 1042 003e CA69     		ldr	r2, [r1, #28]
 1043              	.LVL42:
 462:Drivers/STM32F4xx_HAL_Driver/Src/stm32f4xx_hal_i2s_ex.c ****   /* Check the Data format: When a 16-bit data frame or a 16-bit data frame extended
 1044              		.loc 1 462 8 discriminator 2 view .LVU344
 1045 0040 02F00702 		and	r2, r2, #7
 1046              	.LVL43:
 467:Drivers/STM32F4xx_HAL_Driver/Src/stm32f4xx_hal_i2s_ex.c ****   {
 1047              		.loc 1 467 3 is_stmt 1 discriminator 2 view .LVU345
 467:Drivers/STM32F4xx_HAL_Driver/Src/stm32f4xx_hal_i2s_ex.c ****   {
 1048              		.loc 1 467 6 is_stmt 0 discriminator 2 view .LVU346
 1049 0044 032A     		cmp	r2, #3
 1050 0046 0AD0     		beq	.L102
 467:Drivers/STM32F4xx_HAL_Driver/Src/stm32f4xx_hal_i2s_ex.c ****   {
 1051              		.loc 1 467 36 discriminator 1 view .LVU347
 1052 0048 052A     		cmp	r2, #5
 1053 004a 08D0     		beq	.L102
 476:Drivers/STM32F4xx_HAL_Driver/Src/stm32f4xx_hal_i2s_ex.c ****     hi2s->TxXferCount = Size;
 1054              		.loc 1 476 5 is_stmt 1 view .LVU348
 476:Drivers/STM32F4xx_HAL_Driver/Src/stm32f4xx_hal_i2s_ex.c ****     hi2s->TxXferCount = Size;
 1055              		.loc 1 476 23 is_stmt 0 view .LVU349
 1056 004c ACF82830 		strh	r3, [ip, #40]	@ movhi
 477:Drivers/STM32F4xx_HAL_Driver/Src/stm32f4xx_hal_i2s_ex.c ****     hi2s->RxXferSize  = Size;
 1057              		.loc 1 477 5 is_stmt 1 view .LVU350
 477:Drivers/STM32F4xx_HAL_Driver/Src/stm32f4xx_hal_i2s_ex.c ****     hi2s->RxXferSize  = Size;
 1058              		.loc 1 477 23 is_stmt 0 view .LVU351
 1059 0050 ACF82A30 		strh	r3, [ip, #42]	@ movhi
 478:Drivers/STM32F4xx_HAL_Driver/Src/stm32f4xx_hal_i2s_ex.c ****     hi2s->RxXferCount = Size;
 1060              		.loc 1 478 5 is_stmt 1 view .LVU352
 478:Drivers/STM32F4xx_HAL_Driver/Src/stm32f4xx_hal_i2s_ex.c ****     hi2s->RxXferCount = Size;
 1061              		.loc 1 478 23 is_stmt 0 view .LVU353
 1062 0054 ACF83030 		strh	r3, [ip, #48]	@ movhi
 479:Drivers/STM32F4xx_HAL_Driver/Src/stm32f4xx_hal_i2s_ex.c ****   }
 1063              		.loc 1 479 5 is_stmt 1 view .LVU354
 479:Drivers/STM32F4xx_HAL_Driver/Src/stm32f4xx_hal_i2s_ex.c ****   }
 1064              		.loc 1 479 23 is_stmt 0 view .LVU355
ARM GAS  C:\Users\ridel\AppData\Local\Temp\ccOCejYh.s 			page 45


 1065 0058 ACF83230 		strh	r3, [ip, #50]	@ movhi
 1066 005c 09E0     		b	.L104
 1067              	.L102:
 469:Drivers/STM32F4xx_HAL_Driver/Src/stm32f4xx_hal_i2s_ex.c ****     hi2s->TxXferCount = (Size << 1U);
 1068              		.loc 1 469 5 is_stmt 1 view .LVU356
 469:Drivers/STM32F4xx_HAL_Driver/Src/stm32f4xx_hal_i2s_ex.c ****     hi2s->TxXferCount = (Size << 1U);
 1069              		.loc 1 469 31 is_stmt 0 view .LVU357
 1070 005e 5B00     		lsls	r3, r3, #1
 1071              	.LVL44:
 469:Drivers/STM32F4xx_HAL_Driver/Src/stm32f4xx_hal_i2s_ex.c ****     hi2s->TxXferCount = (Size << 1U);
 1072              		.loc 1 469 31 view .LVU358
 1073 0060 9BB2     		uxth	r3, r3
 469:Drivers/STM32F4xx_HAL_Driver/Src/stm32f4xx_hal_i2s_ex.c ****     hi2s->TxXferCount = (Size << 1U);
 1074              		.loc 1 469 23 view .LVU359
 1075 0062 ACF82830 		strh	r3, [ip, #40]	@ movhi
 470:Drivers/STM32F4xx_HAL_Driver/Src/stm32f4xx_hal_i2s_ex.c ****     hi2s->RxXferSize  = (Size << 1U);
 1076              		.loc 1 470 5 is_stmt 1 view .LVU360
 470:Drivers/STM32F4xx_HAL_Driver/Src/stm32f4xx_hal_i2s_ex.c ****     hi2s->RxXferSize  = (Size << 1U);
 1077              		.loc 1 470 23 is_stmt 0 view .LVU361
 1078 0066 ACF82A30 		strh	r3, [ip, #42]	@ movhi
 471:Drivers/STM32F4xx_HAL_Driver/Src/stm32f4xx_hal_i2s_ex.c ****     hi2s->RxXferCount = (Size << 1U);
 1079              		.loc 1 471 5 is_stmt 1 view .LVU362
 471:Drivers/STM32F4xx_HAL_Driver/Src/stm32f4xx_hal_i2s_ex.c ****     hi2s->RxXferCount = (Size << 1U);
 1080              		.loc 1 471 23 is_stmt 0 view .LVU363
 1081 006a ACF83030 		strh	r3, [ip, #48]	@ movhi
 472:Drivers/STM32F4xx_HAL_Driver/Src/stm32f4xx_hal_i2s_ex.c ****   }
 1082              		.loc 1 472 5 is_stmt 1 view .LVU364
 472:Drivers/STM32F4xx_HAL_Driver/Src/stm32f4xx_hal_i2s_ex.c ****   }
 1083              		.loc 1 472 23 is_stmt 0 view .LVU365
 1084 006e ACF83230 		strh	r3, [ip, #50]	@ movhi
 1085              	.L104:
 482:Drivers/STM32F4xx_HAL_Driver/Src/stm32f4xx_hal_i2s_ex.c ****   hi2s->State     = HAL_I2S_STATE_BUSY_TX_RX;
 1086              		.loc 1 482 3 is_stmt 1 view .LVU366
 482:Drivers/STM32F4xx_HAL_Driver/Src/stm32f4xx_hal_i2s_ex.c ****   hi2s->State     = HAL_I2S_STATE_BUSY_TX_RX;
 1087              		.loc 1 482 19 is_stmt 0 view .LVU367
 1088 0072 0023     		movs	r3, #0
 1089 0074 CCF84430 		str	r3, [ip, #68]
 483:Drivers/STM32F4xx_HAL_Driver/Src/stm32f4xx_hal_i2s_ex.c **** 
 1090              		.loc 1 483 3 is_stmt 1 view .LVU368
 483:Drivers/STM32F4xx_HAL_Driver/Src/stm32f4xx_hal_i2s_ex.c **** 
 1091              		.loc 1 483 19 is_stmt 0 view .LVU369
 1092 0078 0523     		movs	r3, #5
 1093 007a 8CF84130 		strb	r3, [ip, #65]
 486:Drivers/STM32F4xx_HAL_Driver/Src/stm32f4xx_hal_i2s_ex.c ****   {
 1094              		.loc 1 486 3 is_stmt 1 view .LVU370
 486:Drivers/STM32F4xx_HAL_Driver/Src/stm32f4xx_hal_i2s_ex.c ****   {
 1095              		.loc 1 486 18 is_stmt 0 view .LVU371
 1096 007e DCF80430 		ldr	r3, [ip, #4]
 486:Drivers/STM32F4xx_HAL_Driver/Src/stm32f4xx_hal_i2s_ex.c ****   {
 1097              		.loc 1 486 6 view .LVU372
 1098 0082 B3F5007F 		cmp	r3, #512
 1099 0086 01D0     		beq	.L105
 486:Drivers/STM32F4xx_HAL_Driver/Src/stm32f4xx_hal_i2s_ex.c ****   {
 1100              		.loc 1 486 47 discriminator 1 view .LVU373
 1101 0088 002B     		cmp	r3, #0
 1102 008a 40D1     		bne	.L106
 1103              	.L105:
ARM GAS  C:\Users\ridel\AppData\Local\Temp\ccOCejYh.s 			page 46


 489:Drivers/STM32F4xx_HAL_Driver/Src/stm32f4xx_hal_i2s_ex.c **** 
 1104              		.loc 1 489 5 is_stmt 1 view .LVU374
 1105 008c 414B     		ldr	r3, .L125
 1106 008e 9942     		cmp	r1, r3
 1107 0090 3BD0     		beq	.L120
 1108 0092 4FF04022 		mov	r2, #1073758208
 1109              	.LVL45:
 1110              	.L107:
 489:Drivers/STM32F4xx_HAL_Driver/Src/stm32f4xx_hal_i2s_ex.c **** 
 1111              		.loc 1 489 5 is_stmt 0 discriminator 4 view .LVU375
 1112 0096 5368     		ldr	r3, [r2, #4]
 1113 0098 43F06003 		orr	r3, r3, #96
 1114 009c 5360     		str	r3, [r2, #4]
 1115              	.LVL46:
 492:Drivers/STM32F4xx_HAL_Driver/Src/stm32f4xx_hal_i2s_ex.c **** 
 1116              		.loc 1 492 5 is_stmt 1 discriminator 4 view .LVU376
 1117 009e DCF80020 		ldr	r2, [ip]
 1118 00a2 5368     		ldr	r3, [r2, #4]
 1119 00a4 43F0A003 		orr	r3, r3, #160
 1120 00a8 5360     		str	r3, [r2, #4]
 495:Drivers/STM32F4xx_HAL_Driver/Src/stm32f4xx_hal_i2s_ex.c ****     hi2s->TxXferCount--;
 1121              		.loc 1 495 5 discriminator 4 view .LVU377
 495:Drivers/STM32F4xx_HAL_Driver/Src/stm32f4xx_hal_i2s_ex.c ****     hi2s->TxXferCount--;
 1122              		.loc 1 495 32 is_stmt 0 discriminator 4 view .LVU378
 1123 00aa DCF82430 		ldr	r3, [ip, #36]
 495:Drivers/STM32F4xx_HAL_Driver/Src/stm32f4xx_hal_i2s_ex.c ****     hi2s->TxXferCount--;
 1124              		.loc 1 495 44 discriminator 4 view .LVU379
 1125 00ae 9A1C     		adds	r2, r3, #2
 1126 00b0 CCF82420 		str	r2, [ip, #36]
 495:Drivers/STM32F4xx_HAL_Driver/Src/stm32f4xx_hal_i2s_ex.c ****     hi2s->TxXferCount--;
 1127              		.loc 1 495 9 discriminator 4 view .LVU380
 1128 00b4 DCF80020 		ldr	r2, [ip]
 495:Drivers/STM32F4xx_HAL_Driver/Src/stm32f4xx_hal_i2s_ex.c ****     hi2s->TxXferCount--;
 1129              		.loc 1 495 27 discriminator 4 view .LVU381
 1130 00b8 1B88     		ldrh	r3, [r3]
 495:Drivers/STM32F4xx_HAL_Driver/Src/stm32f4xx_hal_i2s_ex.c ****     hi2s->TxXferCount--;
 1131              		.loc 1 495 24 discriminator 4 view .LVU382
 1132 00ba D360     		str	r3, [r2, #12]
 496:Drivers/STM32F4xx_HAL_Driver/Src/stm32f4xx_hal_i2s_ex.c **** 
 1133              		.loc 1 496 5 is_stmt 1 discriminator 4 view .LVU383
 496:Drivers/STM32F4xx_HAL_Driver/Src/stm32f4xx_hal_i2s_ex.c **** 
 1134              		.loc 1 496 9 is_stmt 0 discriminator 4 view .LVU384
 1135 00bc BCF82A30 		ldrh	r3, [ip, #42]
 1136 00c0 9BB2     		uxth	r3, r3
 496:Drivers/STM32F4xx_HAL_Driver/Src/stm32f4xx_hal_i2s_ex.c **** 
 1137              		.loc 1 496 22 discriminator 4 view .LVU385
 1138 00c2 013B     		subs	r3, r3, #1
 1139 00c4 9BB2     		uxth	r3, r3
 1140 00c6 ACF82A30 		strh	r3, [ip, #42]	@ movhi
 498:Drivers/STM32F4xx_HAL_Driver/Src/stm32f4xx_hal_i2s_ex.c ****     {
 1141              		.loc 1 498 5 is_stmt 1 discriminator 4 view .LVU386
 498:Drivers/STM32F4xx_HAL_Driver/Src/stm32f4xx_hal_i2s_ex.c ****     {
 1142              		.loc 1 498 13 is_stmt 0 discriminator 4 view .LVU387
 1143 00ca BCF82A30 		ldrh	r3, [ip, #42]
 1144 00ce 9BB2     		uxth	r3, r3
 498:Drivers/STM32F4xx_HAL_Driver/Src/stm32f4xx_hal_i2s_ex.c ****     {
 1145              		.loc 1 498 8 discriminator 4 view .LVU388
ARM GAS  C:\Users\ridel\AppData\Local\Temp\ccOCejYh.s 			page 47


 1146 00d0 2BB9     		cbnz	r3, .L108
 501:Drivers/STM32F4xx_HAL_Driver/Src/stm32f4xx_hal_i2s_ex.c ****     }
 1147              		.loc 1 501 7 is_stmt 1 view .LVU389
 1148 00d2 DCF80020 		ldr	r2, [ip]
 1149 00d6 5368     		ldr	r3, [r2, #4]
 1150 00d8 23F0A003 		bic	r3, r3, #160
 1151 00dc 5360     		str	r3, [r2, #4]
 1152              	.L108:
 523:Drivers/STM32F4xx_HAL_Driver/Src/stm32f4xx_hal_i2s_ex.c ****   /* Enable I2Sext peripheral */
 1153              		.loc 1 523 3 view .LVU390
 523:Drivers/STM32F4xx_HAL_Driver/Src/stm32f4xx_hal_i2s_ex.c ****   /* Enable I2Sext peripheral */
 1154              		.loc 1 523 3 view .LVU391
 1155 00de 0023     		movs	r3, #0
 1156 00e0 8CF84030 		strb	r3, [ip, #64]
 523:Drivers/STM32F4xx_HAL_Driver/Src/stm32f4xx_hal_i2s_ex.c ****   /* Enable I2Sext peripheral */
 1157              		.loc 1 523 3 view .LVU392
 525:Drivers/STM32F4xx_HAL_Driver/Src/stm32f4xx_hal_i2s_ex.c **** 
 1158              		.loc 1 525 3 view .LVU393
 1159 00e4 DCF80020 		ldr	r2, [ip]
 1160 00e8 2A4B     		ldr	r3, .L125
 1161 00ea 9A42     		cmp	r2, r3
 1162 00ec 4BD0     		beq	.L121
 1163 00ee 4FF04022 		mov	r2, #1073758208
 1164              	.L112:
 525:Drivers/STM32F4xx_HAL_Driver/Src/stm32f4xx_hal_i2s_ex.c **** 
 1165              		.loc 1 525 3 is_stmt 0 discriminator 4 view .LVU394
 1166 00f2 D369     		ldr	r3, [r2, #28]
 1167 00f4 43F48063 		orr	r3, r3, #1024
 1168 00f8 D361     		str	r3, [r2, #28]
 528:Drivers/STM32F4xx_HAL_Driver/Src/stm32f4xx_hal_i2s_ex.c **** 
 1169              		.loc 1 528 3 is_stmt 1 discriminator 4 view .LVU395
 1170 00fa DCF80020 		ldr	r2, [ip]
 1171 00fe D369     		ldr	r3, [r2, #28]
 1172 0100 43F48063 		orr	r3, r3, #1024
 1173 0104 D361     		str	r3, [r2, #28]
 530:Drivers/STM32F4xx_HAL_Driver/Src/stm32f4xx_hal_i2s_ex.c **** }
 1174              		.loc 1 530 3 discriminator 4 view .LVU396
 530:Drivers/STM32F4xx_HAL_Driver/Src/stm32f4xx_hal_i2s_ex.c **** }
 1175              		.loc 1 530 10 is_stmt 0 discriminator 4 view .LVU397
 1176 0106 0020     		movs	r0, #0
 1177 0108 7047     		bx	lr
 1178              	.LVL47:
 1179              	.L120:
 489:Drivers/STM32F4xx_HAL_Driver/Src/stm32f4xx_hal_i2s_ex.c **** 
 1180              		.loc 1 489 5 view .LVU398
 1181 010a 234A     		ldr	r2, .L125+4
 1182              	.LVL48:
 489:Drivers/STM32F4xx_HAL_Driver/Src/stm32f4xx_hal_i2s_ex.c **** 
 1183              		.loc 1 489 5 view .LVU399
 1184 010c C3E7     		b	.L107
 1185              	.LVL49:
 1186              	.L106:
 507:Drivers/STM32F4xx_HAL_Driver/Src/stm32f4xx_hal_i2s_ex.c **** 
 1187              		.loc 1 507 5 is_stmt 1 view .LVU400
 1188 010e 214B     		ldr	r3, .L125
 1189 0110 9942     		cmp	r1, r3
 1190 0112 31D0     		beq	.L122
ARM GAS  C:\Users\ridel\AppData\Local\Temp\ccOCejYh.s 			page 48


 1191 0114 4FF04022 		mov	r2, #1073758208
 1192              	.LVL50:
 1193              	.L109:
 507:Drivers/STM32F4xx_HAL_Driver/Src/stm32f4xx_hal_i2s_ex.c **** 
 1194              		.loc 1 507 5 is_stmt 0 discriminator 4 view .LVU401
 1195 0118 5368     		ldr	r3, [r2, #4]
 1196 011a 43F0A003 		orr	r3, r3, #160
 1197 011e 5360     		str	r3, [r2, #4]
 1198              	.LVL51:
 510:Drivers/STM32F4xx_HAL_Driver/Src/stm32f4xx_hal_i2s_ex.c **** 
 1199              		.loc 1 510 5 is_stmt 1 discriminator 4 view .LVU402
 1200 0120 DCF80020 		ldr	r2, [ip]
 1201 0124 5368     		ldr	r3, [r2, #4]
 1202 0126 43F06003 		orr	r3, r3, #96
 1203 012a 5360     		str	r3, [r2, #4]
 513:Drivers/STM32F4xx_HAL_Driver/Src/stm32f4xx_hal_i2s_ex.c ****     hi2s->TxXferCount--;
 1204              		.loc 1 513 5 discriminator 4 view .LVU403
 513:Drivers/STM32F4xx_HAL_Driver/Src/stm32f4xx_hal_i2s_ex.c ****     hi2s->TxXferCount--;
 1205              		.loc 1 513 41 is_stmt 0 discriminator 4 view .LVU404
 1206 012c DCF82430 		ldr	r3, [ip, #36]
 513:Drivers/STM32F4xx_HAL_Driver/Src/stm32f4xx_hal_i2s_ex.c ****     hi2s->TxXferCount--;
 1207              		.loc 1 513 53 discriminator 4 view .LVU405
 1208 0130 9A1C     		adds	r2, r3, #2
 1209 0132 CCF82420 		str	r2, [ip, #36]
 513:Drivers/STM32F4xx_HAL_Driver/Src/stm32f4xx_hal_i2s_ex.c ****     hi2s->TxXferCount--;
 1210              		.loc 1 513 36 discriminator 4 view .LVU406
 1211 0136 1B88     		ldrh	r3, [r3]
 513:Drivers/STM32F4xx_HAL_Driver/Src/stm32f4xx_hal_i2s_ex.c ****     hi2s->TxXferCount--;
 1212              		.loc 1 513 5 discriminator 4 view .LVU407
 1213 0138 DCF80010 		ldr	r1, [ip]
 1214 013c 154A     		ldr	r2, .L125
 1215 013e 9142     		cmp	r1, r2
 1216 0140 1CD0     		beq	.L123
 513:Drivers/STM32F4xx_HAL_Driver/Src/stm32f4xx_hal_i2s_ex.c ****     hi2s->TxXferCount--;
 1217              		.loc 1 513 5 view .LVU408
 1218 0142 4FF04022 		mov	r2, #1073758208
 1219              	.L110:
 513:Drivers/STM32F4xx_HAL_Driver/Src/stm32f4xx_hal_i2s_ex.c ****     hi2s->TxXferCount--;
 1220              		.loc 1 513 33 discriminator 4 view .LVU409
 1221 0146 D360     		str	r3, [r2, #12]
 514:Drivers/STM32F4xx_HAL_Driver/Src/stm32f4xx_hal_i2s_ex.c **** 
 1222              		.loc 1 514 5 is_stmt 1 discriminator 4 view .LVU410
 514:Drivers/STM32F4xx_HAL_Driver/Src/stm32f4xx_hal_i2s_ex.c **** 
 1223              		.loc 1 514 9 is_stmt 0 discriminator 4 view .LVU411
 1224 0148 BCF82A30 		ldrh	r3, [ip, #42]
 1225 014c 9BB2     		uxth	r3, r3
 514:Drivers/STM32F4xx_HAL_Driver/Src/stm32f4xx_hal_i2s_ex.c **** 
 1226              		.loc 1 514 22 discriminator 4 view .LVU412
 1227 014e 013B     		subs	r3, r3, #1
 1228 0150 9BB2     		uxth	r3, r3
 1229 0152 ACF82A30 		strh	r3, [ip, #42]	@ movhi
 516:Drivers/STM32F4xx_HAL_Driver/Src/stm32f4xx_hal_i2s_ex.c ****     {
 1230              		.loc 1 516 5 is_stmt 1 discriminator 4 view .LVU413
 516:Drivers/STM32F4xx_HAL_Driver/Src/stm32f4xx_hal_i2s_ex.c ****     {
 1231              		.loc 1 516 13 is_stmt 0 discriminator 4 view .LVU414
 1232 0156 BCF82A30 		ldrh	r3, [ip, #42]
 1233 015a 9BB2     		uxth	r3, r3
ARM GAS  C:\Users\ridel\AppData\Local\Temp\ccOCejYh.s 			page 49


 516:Drivers/STM32F4xx_HAL_Driver/Src/stm32f4xx_hal_i2s_ex.c ****     {
 1234              		.loc 1 516 8 discriminator 4 view .LVU415
 1235 015c 002B     		cmp	r3, #0
 1236 015e BED1     		bne	.L108
 519:Drivers/STM32F4xx_HAL_Driver/Src/stm32f4xx_hal_i2s_ex.c ****     }
 1237              		.loc 1 519 7 is_stmt 1 view .LVU416
 1238 0160 DCF80020 		ldr	r2, [ip]
 1239 0164 0B4B     		ldr	r3, .L125
 1240 0166 9A42     		cmp	r2, r3
 1241 0168 0BD0     		beq	.L124
 1242 016a 4FF04022 		mov	r2, #1073758208
 1243              	.L111:
 519:Drivers/STM32F4xx_HAL_Driver/Src/stm32f4xx_hal_i2s_ex.c ****     }
 1244              		.loc 1 519 7 is_stmt 0 discriminator 4 view .LVU417
 1245 016e 5368     		ldr	r3, [r2, #4]
 1246 0170 23F0A003 		bic	r3, r3, #160
 1247 0174 5360     		str	r3, [r2, #4]
 1248 0176 B2E7     		b	.L108
 1249              	.LVL52:
 1250              	.L122:
 507:Drivers/STM32F4xx_HAL_Driver/Src/stm32f4xx_hal_i2s_ex.c **** 
 1251              		.loc 1 507 5 view .LVU418
 1252 0178 074A     		ldr	r2, .L125+4
 1253              	.LVL53:
 507:Drivers/STM32F4xx_HAL_Driver/Src/stm32f4xx_hal_i2s_ex.c **** 
 1254              		.loc 1 507 5 view .LVU419
 1255 017a CDE7     		b	.L109
 1256              	.LVL54:
 1257              	.L123:
 513:Drivers/STM32F4xx_HAL_Driver/Src/stm32f4xx_hal_i2s_ex.c ****     hi2s->TxXferCount--;
 1258              		.loc 1 513 5 view .LVU420
 1259 017c A2F58062 		sub	r2, r2, #1024
 1260 0180 E1E7     		b	.L110
 1261              	.L124:
 519:Drivers/STM32F4xx_HAL_Driver/Src/stm32f4xx_hal_i2s_ex.c ****     }
 1262              		.loc 1 519 7 view .LVU421
 1263 0182 054A     		ldr	r2, .L125+4
 1264 0184 F3E7     		b	.L111
 1265              	.L121:
 525:Drivers/STM32F4xx_HAL_Driver/Src/stm32f4xx_hal_i2s_ex.c **** 
 1266              		.loc 1 525 3 view .LVU422
 1267 0186 044A     		ldr	r2, .L125+4
 1268 0188 B3E7     		b	.L112
 1269              	.LVL55:
 1270              	.L113:
 448:Drivers/STM32F4xx_HAL_Driver/Src/stm32f4xx_hal_i2s_ex.c ****   }
 1271              		.loc 1 448 12 view .LVU423
 1272 018a 0220     		movs	r0, #2
 1273 018c 7047     		bx	lr
 1274              	.L114:
 457:Drivers/STM32F4xx_HAL_Driver/Src/stm32f4xx_hal_i2s_ex.c **** 
 1275              		.loc 1 457 3 view .LVU424
 1276 018e 0220     		movs	r0, #2
 1277              	.L101:
 531:Drivers/STM32F4xx_HAL_Driver/Src/stm32f4xx_hal_i2s_ex.c **** 
 1278              		.loc 1 531 1 view .LVU425
 1279 0190 7047     		bx	lr
ARM GAS  C:\Users\ridel\AppData\Local\Temp\ccOCejYh.s 			page 50


 1280              	.L126:
 1281 0192 00BF     		.align	2
 1282              	.L125:
 1283 0194 00380040 		.word	1073756160
 1284 0198 00340040 		.word	1073755136
 1285              		.cfi_endproc
 1286              	.LFE135:
 1288              		.section	.text.HAL_I2SEx_TransmitReceive_DMA,"ax",%progbits
 1289              		.align	1
 1290              		.global	HAL_I2SEx_TransmitReceive_DMA
 1291              		.syntax unified
 1292              		.thumb
 1293              		.thumb_func
 1295              	HAL_I2SEx_TransmitReceive_DMA:
 1296              	.LVL56:
 1297              	.LFB136:
 552:Drivers/STM32F4xx_HAL_Driver/Src/stm32f4xx_hal_i2s_ex.c ****   uint32_t *tmp = NULL;
 1298              		.loc 1 552 1 is_stmt 1 view -0
 1299              		.cfi_startproc
 1300              		@ args = 0, pretend = 0, frame = 8
 1301              		@ frame_needed = 0, uses_anonymous_args = 0
 552:Drivers/STM32F4xx_HAL_Driver/Src/stm32f4xx_hal_i2s_ex.c ****   uint32_t *tmp = NULL;
 1302              		.loc 1 552 1 is_stmt 0 view .LVU427
 1303 0000 70B5     		push	{r4, r5, r6, lr}
 1304              	.LCFI6:
 1305              		.cfi_def_cfa_offset 16
 1306              		.cfi_offset 4, -16
 1307              		.cfi_offset 5, -12
 1308              		.cfi_offset 6, -8
 1309              		.cfi_offset 14, -4
 1310 0002 82B0     		sub	sp, sp, #8
 1311              	.LCFI7:
 1312              		.cfi_def_cfa_offset 24
 1313 0004 0446     		mov	r4, r0
 553:Drivers/STM32F4xx_HAL_Driver/Src/stm32f4xx_hal_i2s_ex.c ****   uint32_t tmp1 = 0U;
 1314              		.loc 1 553 3 is_stmt 1 view .LVU428
 1315              	.LVL57:
 554:Drivers/STM32F4xx_HAL_Driver/Src/stm32f4xx_hal_i2s_ex.c **** 
 1316              		.loc 1 554 3 view .LVU429
 556:Drivers/STM32F4xx_HAL_Driver/Src/stm32f4xx_hal_i2s_ex.c ****   {
 1317              		.loc 1 556 3 view .LVU430
 556:Drivers/STM32F4xx_HAL_Driver/Src/stm32f4xx_hal_i2s_ex.c ****   {
 1318              		.loc 1 556 11 is_stmt 0 view .LVU431
 1319 0006 90F84100 		ldrb	r0, [r0, #65]	@ zero_extendqisi2
 1320              	.LVL58:
 556:Drivers/STM32F4xx_HAL_Driver/Src/stm32f4xx_hal_i2s_ex.c ****   {
 1321              		.loc 1 556 11 view .LVU432
 1322 000a C0B2     		uxtb	r0, r0
 556:Drivers/STM32F4xx_HAL_Driver/Src/stm32f4xx_hal_i2s_ex.c ****   {
 1323              		.loc 1 556 6 view .LVU433
 1324 000c 0128     		cmp	r0, #1
 1325 000e 40F0BE80 		bne	.L141
 1326 0012 0D46     		mov	r5, r1
 1327 0014 1646     		mov	r6, r2
 561:Drivers/STM32F4xx_HAL_Driver/Src/stm32f4xx_hal_i2s_ex.c ****   {
 1328              		.loc 1 561 3 is_stmt 1 view .LVU434
 561:Drivers/STM32F4xx_HAL_Driver/Src/stm32f4xx_hal_i2s_ex.c ****   {
ARM GAS  C:\Users\ridel\AppData\Local\Temp\ccOCejYh.s 			page 51


 1329              		.loc 1 561 6 is_stmt 0 view .LVU435
 1330 0016 0029     		cmp	r1, #0
 1331 0018 00F0BA80 		beq	.L128
 561:Drivers/STM32F4xx_HAL_Driver/Src/stm32f4xx_hal_i2s_ex.c ****   {
 1332              		.loc 1 561 25 discriminator 1 view .LVU436
 1333 001c 002A     		cmp	r2, #0
 1334 001e 00F0B780 		beq	.L128
 561:Drivers/STM32F4xx_HAL_Driver/Src/stm32f4xx_hal_i2s_ex.c ****   {
 1335              		.loc 1 561 46 discriminator 2 view .LVU437
 1336 0022 002B     		cmp	r3, #0
 1337 0024 00F0B480 		beq	.L128
 567:Drivers/STM32F4xx_HAL_Driver/Src/stm32f4xx_hal_i2s_ex.c **** 
 1338              		.loc 1 567 3 is_stmt 1 view .LVU438
 567:Drivers/STM32F4xx_HAL_Driver/Src/stm32f4xx_hal_i2s_ex.c **** 
 1339              		.loc 1 567 3 view .LVU439
 1340 0028 94F84020 		ldrb	r2, [r4, #64]	@ zero_extendqisi2
 1341              	.LVL59:
 567:Drivers/STM32F4xx_HAL_Driver/Src/stm32f4xx_hal_i2s_ex.c **** 
 1342              		.loc 1 567 3 is_stmt 0 view .LVU440
 1343 002c D2B2     		uxtb	r2, r2
 1344 002e 012A     		cmp	r2, #1
 1345 0030 00F0B080 		beq	.L142
 567:Drivers/STM32F4xx_HAL_Driver/Src/stm32f4xx_hal_i2s_ex.c **** 
 1346              		.loc 1 567 3 is_stmt 1 discriminator 2 view .LVU441
 1347 0034 0122     		movs	r2, #1
 1348 0036 84F84020 		strb	r2, [r4, #64]
 567:Drivers/STM32F4xx_HAL_Driver/Src/stm32f4xx_hal_i2s_ex.c **** 
 1349              		.loc 1 567 3 discriminator 2 view .LVU442
 569:Drivers/STM32F4xx_HAL_Driver/Src/stm32f4xx_hal_i2s_ex.c ****   hi2s->pRxBuffPtr = pRxData;
 1350              		.loc 1 569 3 discriminator 2 view .LVU443
 569:Drivers/STM32F4xx_HAL_Driver/Src/stm32f4xx_hal_i2s_ex.c ****   hi2s->pRxBuffPtr = pRxData;
 1351              		.loc 1 569 20 is_stmt 0 discriminator 2 view .LVU444
 1352 003a 6162     		str	r1, [r4, #36]
 570:Drivers/STM32F4xx_HAL_Driver/Src/stm32f4xx_hal_i2s_ex.c **** 
 1353              		.loc 1 570 3 is_stmt 1 discriminator 2 view .LVU445
 570:Drivers/STM32F4xx_HAL_Driver/Src/stm32f4xx_hal_i2s_ex.c **** 
 1354              		.loc 1 570 20 is_stmt 0 discriminator 2 view .LVU446
 1355 003c E662     		str	r6, [r4, #44]
 572:Drivers/STM32F4xx_HAL_Driver/Src/stm32f4xx_hal_i2s_ex.c ****   /* Check the Data format: When a 16-bit data frame or a 16-bit data frame extended
 1356              		.loc 1 572 3 is_stmt 1 discriminator 2 view .LVU447
 572:Drivers/STM32F4xx_HAL_Driver/Src/stm32f4xx_hal_i2s_ex.c ****   /* Check the Data format: When a 16-bit data frame or a 16-bit data frame extended
 1357              		.loc 1 572 14 is_stmt 0 discriminator 2 view .LVU448
 1358 003e 2268     		ldr	r2, [r4]
 572:Drivers/STM32F4xx_HAL_Driver/Src/stm32f4xx_hal_i2s_ex.c ****   /* Check the Data format: When a 16-bit data frame or a 16-bit data frame extended
 1359              		.loc 1 572 24 discriminator 2 view .LVU449
 1360 0040 D269     		ldr	r2, [r2, #28]
 572:Drivers/STM32F4xx_HAL_Driver/Src/stm32f4xx_hal_i2s_ex.c ****   /* Check the Data format: When a 16-bit data frame or a 16-bit data frame extended
 1361              		.loc 1 572 8 discriminator 2 view .LVU450
 1362 0042 02F00702 		and	r2, r2, #7
 1363              	.LVL60:
 577:Drivers/STM32F4xx_HAL_Driver/Src/stm32f4xx_hal_i2s_ex.c ****   {
 1364              		.loc 1 577 3 is_stmt 1 discriminator 2 view .LVU451
 577:Drivers/STM32F4xx_HAL_Driver/Src/stm32f4xx_hal_i2s_ex.c ****   {
 1365              		.loc 1 577 6 is_stmt 0 discriminator 2 view .LVU452
 1366 0046 032A     		cmp	r2, #3
 1367 0048 06D0     		beq	.L129
 577:Drivers/STM32F4xx_HAL_Driver/Src/stm32f4xx_hal_i2s_ex.c ****   {
ARM GAS  C:\Users\ridel\AppData\Local\Temp\ccOCejYh.s 			page 52


 1368              		.loc 1 577 36 discriminator 1 view .LVU453
 1369 004a 052A     		cmp	r2, #5
 1370 004c 04D0     		beq	.L129
 586:Drivers/STM32F4xx_HAL_Driver/Src/stm32f4xx_hal_i2s_ex.c ****     hi2s->TxXferCount = Size;
 1371              		.loc 1 586 5 is_stmt 1 view .LVU454
 586:Drivers/STM32F4xx_HAL_Driver/Src/stm32f4xx_hal_i2s_ex.c ****     hi2s->TxXferCount = Size;
 1372              		.loc 1 586 23 is_stmt 0 view .LVU455
 1373 004e 2385     		strh	r3, [r4, #40]	@ movhi
 587:Drivers/STM32F4xx_HAL_Driver/Src/stm32f4xx_hal_i2s_ex.c ****     hi2s->RxXferSize  = Size;
 1374              		.loc 1 587 5 is_stmt 1 view .LVU456
 587:Drivers/STM32F4xx_HAL_Driver/Src/stm32f4xx_hal_i2s_ex.c ****     hi2s->RxXferSize  = Size;
 1375              		.loc 1 587 23 is_stmt 0 view .LVU457
 1376 0050 6385     		strh	r3, [r4, #42]	@ movhi
 588:Drivers/STM32F4xx_HAL_Driver/Src/stm32f4xx_hal_i2s_ex.c ****     hi2s->RxXferCount = Size;
 1377              		.loc 1 588 5 is_stmt 1 view .LVU458
 588:Drivers/STM32F4xx_HAL_Driver/Src/stm32f4xx_hal_i2s_ex.c ****     hi2s->RxXferCount = Size;
 1378              		.loc 1 588 23 is_stmt 0 view .LVU459
 1379 0052 2386     		strh	r3, [r4, #48]	@ movhi
 589:Drivers/STM32F4xx_HAL_Driver/Src/stm32f4xx_hal_i2s_ex.c ****   }
 1380              		.loc 1 589 5 is_stmt 1 view .LVU460
 589:Drivers/STM32F4xx_HAL_Driver/Src/stm32f4xx_hal_i2s_ex.c ****   }
 1381              		.loc 1 589 23 is_stmt 0 view .LVU461
 1382 0054 6386     		strh	r3, [r4, #50]	@ movhi
 1383 0056 05E0     		b	.L131
 1384              	.L129:
 579:Drivers/STM32F4xx_HAL_Driver/Src/stm32f4xx_hal_i2s_ex.c ****     hi2s->TxXferCount = (Size << 1U);
 1385              		.loc 1 579 5 is_stmt 1 view .LVU462
 579:Drivers/STM32F4xx_HAL_Driver/Src/stm32f4xx_hal_i2s_ex.c ****     hi2s->TxXferCount = (Size << 1U);
 1386              		.loc 1 579 31 is_stmt 0 view .LVU463
 1387 0058 5B00     		lsls	r3, r3, #1
 1388              	.LVL61:
 579:Drivers/STM32F4xx_HAL_Driver/Src/stm32f4xx_hal_i2s_ex.c ****     hi2s->TxXferCount = (Size << 1U);
 1389              		.loc 1 579 31 view .LVU464
 1390 005a 9BB2     		uxth	r3, r3
 579:Drivers/STM32F4xx_HAL_Driver/Src/stm32f4xx_hal_i2s_ex.c ****     hi2s->TxXferCount = (Size << 1U);
 1391              		.loc 1 579 23 view .LVU465
 1392 005c 2385     		strh	r3, [r4, #40]	@ movhi
 580:Drivers/STM32F4xx_HAL_Driver/Src/stm32f4xx_hal_i2s_ex.c ****     hi2s->RxXferSize  = (Size << 1U);
 1393              		.loc 1 580 5 is_stmt 1 view .LVU466
 580:Drivers/STM32F4xx_HAL_Driver/Src/stm32f4xx_hal_i2s_ex.c ****     hi2s->RxXferSize  = (Size << 1U);
 1394              		.loc 1 580 23 is_stmt 0 view .LVU467
 1395 005e 6385     		strh	r3, [r4, #42]	@ movhi
 581:Drivers/STM32F4xx_HAL_Driver/Src/stm32f4xx_hal_i2s_ex.c ****     hi2s->RxXferCount = (Size << 1U);
 1396              		.loc 1 581 5 is_stmt 1 view .LVU468
 581:Drivers/STM32F4xx_HAL_Driver/Src/stm32f4xx_hal_i2s_ex.c ****     hi2s->RxXferCount = (Size << 1U);
 1397              		.loc 1 581 23 is_stmt 0 view .LVU469
 1398 0060 2386     		strh	r3, [r4, #48]	@ movhi
 582:Drivers/STM32F4xx_HAL_Driver/Src/stm32f4xx_hal_i2s_ex.c ****   }
 1399              		.loc 1 582 5 is_stmt 1 view .LVU470
 582:Drivers/STM32F4xx_HAL_Driver/Src/stm32f4xx_hal_i2s_ex.c ****   }
 1400              		.loc 1 582 23 is_stmt 0 view .LVU471
 1401 0062 6386     		strh	r3, [r4, #50]	@ movhi
 1402              	.L131:
 592:Drivers/STM32F4xx_HAL_Driver/Src/stm32f4xx_hal_i2s_ex.c ****   hi2s->State     = HAL_I2S_STATE_BUSY_TX_RX;
 1403              		.loc 1 592 3 is_stmt 1 view .LVU472
 592:Drivers/STM32F4xx_HAL_Driver/Src/stm32f4xx_hal_i2s_ex.c ****   hi2s->State     = HAL_I2S_STATE_BUSY_TX_RX;
 1404              		.loc 1 592 19 is_stmt 0 view .LVU473
ARM GAS  C:\Users\ridel\AppData\Local\Temp\ccOCejYh.s 			page 53


 1405 0064 0023     		movs	r3, #0
 1406 0066 6364     		str	r3, [r4, #68]
 593:Drivers/STM32F4xx_HAL_Driver/Src/stm32f4xx_hal_i2s_ex.c **** 
 1407              		.loc 1 593 3 is_stmt 1 view .LVU474
 593:Drivers/STM32F4xx_HAL_Driver/Src/stm32f4xx_hal_i2s_ex.c **** 
 1408              		.loc 1 593 19 is_stmt 0 view .LVU475
 1409 0068 0522     		movs	r2, #5
 1410              	.LVL62:
 593:Drivers/STM32F4xx_HAL_Driver/Src/stm32f4xx_hal_i2s_ex.c **** 
 1411              		.loc 1 593 19 view .LVU476
 1412 006a 84F84120 		strb	r2, [r4, #65]
 596:Drivers/STM32F4xx_HAL_Driver/Src/stm32f4xx_hal_i2s_ex.c **** 
 1413              		.loc 1 596 3 is_stmt 1 view .LVU477
 596:Drivers/STM32F4xx_HAL_Driver/Src/stm32f4xx_hal_i2s_ex.c **** 
 1414              		.loc 1 596 7 is_stmt 0 view .LVU478
 1415 006e E26B     		ldr	r2, [r4, #60]
 596:Drivers/STM32F4xx_HAL_Driver/Src/stm32f4xx_hal_i2s_ex.c **** 
 1416              		.loc 1 596 38 view .LVU479
 1417 0070 4A49     		ldr	r1, .L156
 1418              	.LVL63:
 596:Drivers/STM32F4xx_HAL_Driver/Src/stm32f4xx_hal_i2s_ex.c **** 
 1419              		.loc 1 596 38 view .LVU480
 1420 0072 1164     		str	r1, [r2, #64]
 599:Drivers/STM32F4xx_HAL_Driver/Src/stm32f4xx_hal_i2s_ex.c **** 
 1421              		.loc 1 599 3 is_stmt 1 view .LVU481
 599:Drivers/STM32F4xx_HAL_Driver/Src/stm32f4xx_hal_i2s_ex.c **** 
 1422              		.loc 1 599 7 is_stmt 0 view .LVU482
 1423 0074 E26B     		ldr	r2, [r4, #60]
 599:Drivers/STM32F4xx_HAL_Driver/Src/stm32f4xx_hal_i2s_ex.c **** 
 1424              		.loc 1 599 35 view .LVU483
 1425 0076 4A49     		ldr	r1, .L156+4
 1426 0078 D163     		str	r1, [r2, #60]
 602:Drivers/STM32F4xx_HAL_Driver/Src/stm32f4xx_hal_i2s_ex.c **** 
 1427              		.loc 1 602 3 is_stmt 1 view .LVU484
 602:Drivers/STM32F4xx_HAL_Driver/Src/stm32f4xx_hal_i2s_ex.c **** 
 1428              		.loc 1 602 7 is_stmt 0 view .LVU485
 1429 007a E16B     		ldr	r1, [r4, #60]
 602:Drivers/STM32F4xx_HAL_Driver/Src/stm32f4xx_hal_i2s_ex.c **** 
 1430              		.loc 1 602 35 view .LVU486
 1431 007c 494A     		ldr	r2, .L156+8
 1432 007e CA64     		str	r2, [r1, #76]
 605:Drivers/STM32F4xx_HAL_Driver/Src/stm32f4xx_hal_i2s_ex.c **** 
 1433              		.loc 1 605 3 is_stmt 1 view .LVU487
 605:Drivers/STM32F4xx_HAL_Driver/Src/stm32f4xx_hal_i2s_ex.c **** 
 1434              		.loc 1 605 7 is_stmt 0 view .LVU488
 1435 0080 A16B     		ldr	r1, [r4, #56]
 605:Drivers/STM32F4xx_HAL_Driver/Src/stm32f4xx_hal_i2s_ex.c **** 
 1436              		.loc 1 605 39 view .LVU489
 1437 0082 0B64     		str	r3, [r1, #64]
 608:Drivers/STM32F4xx_HAL_Driver/Src/stm32f4xx_hal_i2s_ex.c **** 
 1438              		.loc 1 608 3 is_stmt 1 view .LVU490
 608:Drivers/STM32F4xx_HAL_Driver/Src/stm32f4xx_hal_i2s_ex.c **** 
 1439              		.loc 1 608 7 is_stmt 0 view .LVU491
 1440 0084 A16B     		ldr	r1, [r4, #56]
 608:Drivers/STM32F4xx_HAL_Driver/Src/stm32f4xx_hal_i2s_ex.c **** 
 1441              		.loc 1 608 35 view .LVU492
 1442 0086 CB63     		str	r3, [r1, #60]
ARM GAS  C:\Users\ridel\AppData\Local\Temp\ccOCejYh.s 			page 54


 611:Drivers/STM32F4xx_HAL_Driver/Src/stm32f4xx_hal_i2s_ex.c **** 
 1443              		.loc 1 611 3 is_stmt 1 view .LVU493
 611:Drivers/STM32F4xx_HAL_Driver/Src/stm32f4xx_hal_i2s_ex.c **** 
 1444              		.loc 1 611 7 is_stmt 0 view .LVU494
 1445 0088 A36B     		ldr	r3, [r4, #56]
 611:Drivers/STM32F4xx_HAL_Driver/Src/stm32f4xx_hal_i2s_ex.c **** 
 1446              		.loc 1 611 35 view .LVU495
 1447 008a DA64     		str	r2, [r3, #76]
 613:Drivers/STM32F4xx_HAL_Driver/Src/stm32f4xx_hal_i2s_ex.c ****   /* Check if the I2S_MODE_MASTER_TX or I2S_MODE_SLAVE_TX Mode is selected */
 1448              		.loc 1 613 3 is_stmt 1 view .LVU496
 613:Drivers/STM32F4xx_HAL_Driver/Src/stm32f4xx_hal_i2s_ex.c ****   /* Check if the I2S_MODE_MASTER_TX or I2S_MODE_SLAVE_TX Mode is selected */
 1449              		.loc 1 613 14 is_stmt 0 view .LVU497
 1450 008c 2268     		ldr	r2, [r4]
 613:Drivers/STM32F4xx_HAL_Driver/Src/stm32f4xx_hal_i2s_ex.c ****   /* Check if the I2S_MODE_MASTER_TX or I2S_MODE_SLAVE_TX Mode is selected */
 1451              		.loc 1 613 24 view .LVU498
 1452 008e D369     		ldr	r3, [r2, #28]
 613:Drivers/STM32F4xx_HAL_Driver/Src/stm32f4xx_hal_i2s_ex.c ****   /* Check if the I2S_MODE_MASTER_TX or I2S_MODE_SLAVE_TX Mode is selected */
 1453              		.loc 1 613 8 view .LVU499
 1454 0090 03F44073 		and	r3, r3, #768
 1455              	.LVL64:
 615:Drivers/STM32F4xx_HAL_Driver/Src/stm32f4xx_hal_i2s_ex.c ****   {
 1456              		.loc 1 615 3 is_stmt 1 view .LVU500
 615:Drivers/STM32F4xx_HAL_Driver/Src/stm32f4xx_hal_i2s_ex.c ****   {
 1457              		.loc 1 615 6 is_stmt 0 view .LVU501
 1458 0094 B3F5007F 		cmp	r3, #512
 1459 0098 01D0     		beq	.L132
 615:Drivers/STM32F4xx_HAL_Driver/Src/stm32f4xx_hal_i2s_ex.c ****   {
 1460              		.loc 1 615 36 discriminator 1 view .LVU502
 1461 009a 002B     		cmp	r3, #0
 1462 009c 3ED1     		bne	.L133
 1463              	.L132:
 618:Drivers/STM32F4xx_HAL_Driver/Src/stm32f4xx_hal_i2s_ex.c ****     HAL_DMA_Start_IT(hi2s->hdmarx, (uint32_t)&I2SxEXT(hi2s->Instance)->DR, *(uint32_t *)tmp, hi2s->
 1464              		.loc 1 618 5 is_stmt 1 view .LVU503
 1465              	.LVL65:
 619:Drivers/STM32F4xx_HAL_Driver/Src/stm32f4xx_hal_i2s_ex.c **** 
 1466              		.loc 1 619 5 view .LVU504
 1467 009e E06B     		ldr	r0, [r4, #60]
 619:Drivers/STM32F4xx_HAL_Driver/Src/stm32f4xx_hal_i2s_ex.c **** 
 1468              		.loc 1 619 47 is_stmt 0 view .LVU505
 1469 00a0 414B     		ldr	r3, .L156+12
 1470              	.LVL66:
 619:Drivers/STM32F4xx_HAL_Driver/Src/stm32f4xx_hal_i2s_ex.c **** 
 1471              		.loc 1 619 47 view .LVU506
 1472 00a2 9A42     		cmp	r2, r3
 1473 00a4 36D0     		beq	.L150
 1474 00a6 4FF04021 		mov	r1, #1073758208
 1475              	.L134:
 619:Drivers/STM32F4xx_HAL_Driver/Src/stm32f4xx_hal_i2s_ex.c **** 
 1476              		.loc 1 619 98 discriminator 4 view .LVU507
 1477 00aa 238E     		ldrh	r3, [r4, #48]
 619:Drivers/STM32F4xx_HAL_Driver/Src/stm32f4xx_hal_i2s_ex.c **** 
 1478              		.loc 1 619 5 discriminator 4 view .LVU508
 1479 00ac 9BB2     		uxth	r3, r3
 1480 00ae 3246     		mov	r2, r6
 1481 00b0 0C31     		adds	r1, r1, #12
 1482 00b2 FFF7FEFF 		bl	HAL_DMA_Start_IT
 1483              	.LVL67:
ARM GAS  C:\Users\ridel\AppData\Local\Temp\ccOCejYh.s 			page 55


 622:Drivers/STM32F4xx_HAL_Driver/Src/stm32f4xx_hal_i2s_ex.c **** 
 1484              		.loc 1 622 5 is_stmt 1 discriminator 4 view .LVU509
 1485 00b6 2268     		ldr	r2, [r4]
 1486 00b8 3B4B     		ldr	r3, .L156+12
 1487 00ba 9A42     		cmp	r2, r3
 1488 00bc 2CD0     		beq	.L151
 622:Drivers/STM32F4xx_HAL_Driver/Src/stm32f4xx_hal_i2s_ex.c **** 
 1489              		.loc 1 622 5 is_stmt 0 view .LVU510
 1490 00be 4FF04022 		mov	r2, #1073758208
 1491              	.L135:
 622:Drivers/STM32F4xx_HAL_Driver/Src/stm32f4xx_hal_i2s_ex.c **** 
 1492              		.loc 1 622 5 discriminator 4 view .LVU511
 1493 00c2 5368     		ldr	r3, [r2, #4]
 1494 00c4 43F00103 		orr	r3, r3, #1
 1495 00c8 5360     		str	r3, [r2, #4]
 625:Drivers/STM32F4xx_HAL_Driver/Src/stm32f4xx_hal_i2s_ex.c ****     HAL_DMA_Start_IT(hi2s->hdmatx, *(uint32_t *)tmp, (uint32_t)&hi2s->Instance->DR, hi2s->TxXferSiz
 1496              		.loc 1 625 5 is_stmt 1 discriminator 4 view .LVU512
 1497              	.LVL68:
 626:Drivers/STM32F4xx_HAL_Driver/Src/stm32f4xx_hal_i2s_ex.c **** 
 1498              		.loc 1 626 5 discriminator 4 view .LVU513
 626:Drivers/STM32F4xx_HAL_Driver/Src/stm32f4xx_hal_i2s_ex.c **** 
 1499              		.loc 1 626 69 is_stmt 0 discriminator 4 view .LVU514
 1500 00ca 2268     		ldr	r2, [r4]
 626:Drivers/STM32F4xx_HAL_Driver/Src/stm32f4xx_hal_i2s_ex.c **** 
 1501              		.loc 1 626 89 discriminator 4 view .LVU515
 1502 00cc 238D     		ldrh	r3, [r4, #40]
 626:Drivers/STM32F4xx_HAL_Driver/Src/stm32f4xx_hal_i2s_ex.c **** 
 1503              		.loc 1 626 5 discriminator 4 view .LVU516
 1504 00ce 9BB2     		uxth	r3, r3
 1505 00d0 0C32     		adds	r2, r2, #12
 1506 00d2 2946     		mov	r1, r5
 1507 00d4 A06B     		ldr	r0, [r4, #56]
 1508 00d6 FFF7FEFF 		bl	HAL_DMA_Start_IT
 1509              	.LVL69:
 629:Drivers/STM32F4xx_HAL_Driver/Src/stm32f4xx_hal_i2s_ex.c ****   }
 1510              		.loc 1 629 5 is_stmt 1 discriminator 4 view .LVU517
 1511 00da 2268     		ldr	r2, [r4]
 1512 00dc 5368     		ldr	r3, [r2, #4]
 1513 00de 43F00203 		orr	r3, r3, #2
 1514 00e2 5360     		str	r3, [r2, #4]
 1515              	.LVL70:
 1516              	.L136:
 655:Drivers/STM32F4xx_HAL_Driver/Src/stm32f4xx_hal_i2s_ex.c ****   /* Check if the I2S is already enabled */
 1517              		.loc 1 655 3 view .LVU518
 655:Drivers/STM32F4xx_HAL_Driver/Src/stm32f4xx_hal_i2s_ex.c ****   /* Check if the I2S is already enabled */
 1518              		.loc 1 655 3 view .LVU519
 1519 00e4 0023     		movs	r3, #0
 1520 00e6 84F84030 		strb	r3, [r4, #64]
 655:Drivers/STM32F4xx_HAL_Driver/Src/stm32f4xx_hal_i2s_ex.c ****   /* Check if the I2S is already enabled */
 1521              		.loc 1 655 3 view .LVU520
 657:Drivers/STM32F4xx_HAL_Driver/Src/stm32f4xx_hal_i2s_ex.c ****   {
 1522              		.loc 1 657 3 view .LVU521
 657:Drivers/STM32F4xx_HAL_Driver/Src/stm32f4xx_hal_i2s_ex.c ****   {
 1523              		.loc 1 657 12 is_stmt 0 view .LVU522
 1524 00ea 2368     		ldr	r3, [r4]
 657:Drivers/STM32F4xx_HAL_Driver/Src/stm32f4xx_hal_i2s_ex.c ****   {
 1525              		.loc 1 657 22 view .LVU523
ARM GAS  C:\Users\ridel\AppData\Local\Temp\ccOCejYh.s 			page 56


 1526 00ec DA69     		ldr	r2, [r3, #28]
 657:Drivers/STM32F4xx_HAL_Driver/Src/stm32f4xx_hal_i2s_ex.c ****   {
 1527              		.loc 1 657 6 view .LVU524
 1528 00ee 12F4806F 		tst	r2, #1024
 1529 00f2 51D1     		bne	.L147
 660:Drivers/STM32F4xx_HAL_Driver/Src/stm32f4xx_hal_i2s_ex.c ****     /* Enable I2S peripheral before the I2Sext */
 1530              		.loc 1 660 5 is_stmt 1 view .LVU525
 1531 00f4 2C4A     		ldr	r2, .L156+12
 1532 00f6 9342     		cmp	r3, r2
 1533 00f8 46D0     		beq	.L152
 1534 00fa 4FF04022 		mov	r2, #1073758208
 1535              	.L140:
 660:Drivers/STM32F4xx_HAL_Driver/Src/stm32f4xx_hal_i2s_ex.c ****     /* Enable I2S peripheral before the I2Sext */
 1536              		.loc 1 660 5 is_stmt 0 discriminator 4 view .LVU526
 1537 00fe D369     		ldr	r3, [r2, #28]
 1538 0100 43F48063 		orr	r3, r3, #1024
 1539 0104 D361     		str	r3, [r2, #28]
 662:Drivers/STM32F4xx_HAL_Driver/Src/stm32f4xx_hal_i2s_ex.c ****   }
 1540              		.loc 1 662 5 is_stmt 1 discriminator 4 view .LVU527
 1541 0106 2268     		ldr	r2, [r4]
 1542 0108 D369     		ldr	r3, [r2, #28]
 1543 010a 43F48063 		orr	r3, r3, #1024
 1544 010e D361     		str	r3, [r2, #28]
 665:Drivers/STM32F4xx_HAL_Driver/Src/stm32f4xx_hal_i2s_ex.c **** }
 1545              		.loc 1 665 10 is_stmt 0 discriminator 4 view .LVU528
 1546 0110 0020     		movs	r0, #0
 1547 0112 3DE0     		b	.L128
 1548              	.LVL71:
 1549              	.L150:
 619:Drivers/STM32F4xx_HAL_Driver/Src/stm32f4xx_hal_i2s_ex.c **** 
 1550              		.loc 1 619 47 view .LVU529
 1551 0114 2549     		ldr	r1, .L156+16
 1552 0116 C8E7     		b	.L134
 1553              	.L151:
 622:Drivers/STM32F4xx_HAL_Driver/Src/stm32f4xx_hal_i2s_ex.c **** 
 1554              		.loc 1 622 5 view .LVU530
 1555 0118 244A     		ldr	r2, .L156+16
 1556 011a D2E7     		b	.L135
 1557              	.LVL72:
 1558              	.L133:
 634:Drivers/STM32F4xx_HAL_Driver/Src/stm32f4xx_hal_i2s_ex.c ****     {
 1559              		.loc 1 634 5 is_stmt 1 view .LVU531
 634:Drivers/STM32F4xx_HAL_Driver/Src/stm32f4xx_hal_i2s_ex.c ****     {
 1560              		.loc 1 634 24 is_stmt 0 view .LVU532
 1561 011c D369     		ldr	r3, [r2, #28]
 1562              	.LVL73:
 634:Drivers/STM32F4xx_HAL_Driver/Src/stm32f4xx_hal_i2s_ex.c ****     {
 1563              		.loc 1 634 34 view .LVU533
 1564 011e 03F44073 		and	r3, r3, #768
 634:Drivers/STM32F4xx_HAL_Driver/Src/stm32f4xx_hal_i2s_ex.c ****     {
 1565              		.loc 1 634 8 view .LVU534
 1566 0122 B3F5407F 		cmp	r3, #768
 1567 0126 23D0     		beq	.L153
 1568              	.L137:
 638:Drivers/STM32F4xx_HAL_Driver/Src/stm32f4xx_hal_i2s_ex.c ****     }
 1569              		.loc 1 638 7 is_stmt 1 discriminator 1 view .LVU535
 641:Drivers/STM32F4xx_HAL_Driver/Src/stm32f4xx_hal_i2s_ex.c ****     HAL_DMA_Start_IT(hi2s->hdmatx, *(uint32_t *)tmp, (uint32_t)&I2SxEXT(hi2s->Instance)->DR, hi2s->
ARM GAS  C:\Users\ridel\AppData\Local\Temp\ccOCejYh.s 			page 57


 1570              		.loc 1 641 5 discriminator 1 view .LVU536
 1571              	.LVL74:
 642:Drivers/STM32F4xx_HAL_Driver/Src/stm32f4xx_hal_i2s_ex.c **** 
 1572              		.loc 1 642 5 discriminator 1 view .LVU537
 1573 0128 A06B     		ldr	r0, [r4, #56]
 642:Drivers/STM32F4xx_HAL_Driver/Src/stm32f4xx_hal_i2s_ex.c **** 
 1574              		.loc 1 642 65 is_stmt 0 discriminator 1 view .LVU538
 1575 012a 1F4B     		ldr	r3, .L156+12
 1576 012c 9A42     		cmp	r2, r3
 1577 012e 27D0     		beq	.L154
 642:Drivers/STM32F4xx_HAL_Driver/Src/stm32f4xx_hal_i2s_ex.c **** 
 1578              		.loc 1 642 65 view .LVU539
 1579 0130 4FF04022 		mov	r2, #1073758208
 1580              	.L138:
 642:Drivers/STM32F4xx_HAL_Driver/Src/stm32f4xx_hal_i2s_ex.c **** 
 1581              		.loc 1 642 98 discriminator 4 view .LVU540
 1582 0134 238D     		ldrh	r3, [r4, #40]
 642:Drivers/STM32F4xx_HAL_Driver/Src/stm32f4xx_hal_i2s_ex.c **** 
 1583              		.loc 1 642 5 discriminator 4 view .LVU541
 1584 0136 9BB2     		uxth	r3, r3
 1585 0138 0C32     		adds	r2, r2, #12
 1586 013a 2946     		mov	r1, r5
 1587 013c FFF7FEFF 		bl	HAL_DMA_Start_IT
 1588              	.LVL75:
 645:Drivers/STM32F4xx_HAL_Driver/Src/stm32f4xx_hal_i2s_ex.c **** 
 1589              		.loc 1 645 5 is_stmt 1 discriminator 4 view .LVU542
 1590 0140 2268     		ldr	r2, [r4]
 1591 0142 194B     		ldr	r3, .L156+12
 1592 0144 9A42     		cmp	r2, r3
 1593 0146 1DD0     		beq	.L155
 645:Drivers/STM32F4xx_HAL_Driver/Src/stm32f4xx_hal_i2s_ex.c **** 
 1594              		.loc 1 645 5 is_stmt 0 view .LVU543
 1595 0148 4FF04022 		mov	r2, #1073758208
 1596              	.L139:
 645:Drivers/STM32F4xx_HAL_Driver/Src/stm32f4xx_hal_i2s_ex.c **** 
 1597              		.loc 1 645 5 discriminator 4 view .LVU544
 1598 014c 5368     		ldr	r3, [r2, #4]
 1599 014e 43F00203 		orr	r3, r3, #2
 1600 0152 5360     		str	r3, [r2, #4]
 648:Drivers/STM32F4xx_HAL_Driver/Src/stm32f4xx_hal_i2s_ex.c ****     HAL_DMA_Start_IT(hi2s->hdmarx, (uint32_t)&hi2s->Instance->DR, *(uint32_t *)tmp, hi2s->RxXferSiz
 1601              		.loc 1 648 5 is_stmt 1 discriminator 4 view .LVU545
 1602              	.LVL76:
 649:Drivers/STM32F4xx_HAL_Driver/Src/stm32f4xx_hal_i2s_ex.c **** 
 1603              		.loc 1 649 5 discriminator 4 view .LVU546
 649:Drivers/STM32F4xx_HAL_Driver/Src/stm32f4xx_hal_i2s_ex.c **** 
 1604              		.loc 1 649 51 is_stmt 0 discriminator 4 view .LVU547
 1605 0154 2168     		ldr	r1, [r4]
 649:Drivers/STM32F4xx_HAL_Driver/Src/stm32f4xx_hal_i2s_ex.c **** 
 1606              		.loc 1 649 89 discriminator 4 view .LVU548
 1607 0156 238E     		ldrh	r3, [r4, #48]
 649:Drivers/STM32F4xx_HAL_Driver/Src/stm32f4xx_hal_i2s_ex.c **** 
 1608              		.loc 1 649 5 discriminator 4 view .LVU549
 1609 0158 9BB2     		uxth	r3, r3
 1610 015a 3246     		mov	r2, r6
 1611 015c 0C31     		adds	r1, r1, #12
 1612 015e E06B     		ldr	r0, [r4, #60]
 1613 0160 FFF7FEFF 		bl	HAL_DMA_Start_IT
ARM GAS  C:\Users\ridel\AppData\Local\Temp\ccOCejYh.s 			page 58


 1614              	.LVL77:
 652:Drivers/STM32F4xx_HAL_Driver/Src/stm32f4xx_hal_i2s_ex.c ****   }
 1615              		.loc 1 652 5 is_stmt 1 discriminator 4 view .LVU550
 1616 0164 2268     		ldr	r2, [r4]
 1617 0166 5368     		ldr	r3, [r2, #4]
 1618 0168 43F00103 		orr	r3, r3, #1
 1619 016c 5360     		str	r3, [r2, #4]
 1620 016e B9E7     		b	.L136
 1621              	.LVL78:
 1622              	.L153:
 638:Drivers/STM32F4xx_HAL_Driver/Src/stm32f4xx_hal_i2s_ex.c ****     }
 1623              		.loc 1 638 7 view .LVU551
 1624              	.LBB9:
 638:Drivers/STM32F4xx_HAL_Driver/Src/stm32f4xx_hal_i2s_ex.c ****     }
 1625              		.loc 1 638 7 view .LVU552
 1626 0170 0023     		movs	r3, #0
 1627 0172 0193     		str	r3, [sp, #4]
 638:Drivers/STM32F4xx_HAL_Driver/Src/stm32f4xx_hal_i2s_ex.c ****     }
 1628              		.loc 1 638 7 view .LVU553
 1629 0174 D368     		ldr	r3, [r2, #12]
 1630 0176 0193     		str	r3, [sp, #4]
 638:Drivers/STM32F4xx_HAL_Driver/Src/stm32f4xx_hal_i2s_ex.c ****     }
 1631              		.loc 1 638 7 view .LVU554
 1632 0178 9368     		ldr	r3, [r2, #8]
 1633 017a 0193     		str	r3, [sp, #4]
 638:Drivers/STM32F4xx_HAL_Driver/Src/stm32f4xx_hal_i2s_ex.c ****     }
 1634              		.loc 1 638 7 view .LVU555
 1635 017c 019B     		ldr	r3, [sp, #4]
 1636 017e D3E7     		b	.L137
 1637              	.LVL79:
 1638              	.L154:
 638:Drivers/STM32F4xx_HAL_Driver/Src/stm32f4xx_hal_i2s_ex.c ****     }
 1639              		.loc 1 638 7 is_stmt 0 view .LVU556
 1640              	.LBE9:
 642:Drivers/STM32F4xx_HAL_Driver/Src/stm32f4xx_hal_i2s_ex.c **** 
 1641              		.loc 1 642 65 view .LVU557
 1642 0180 0A4A     		ldr	r2, .L156+16
 1643 0182 D7E7     		b	.L138
 1644              	.L155:
 645:Drivers/STM32F4xx_HAL_Driver/Src/stm32f4xx_hal_i2s_ex.c **** 
 1645              		.loc 1 645 5 view .LVU558
 1646 0184 094A     		ldr	r2, .L156+16
 1647 0186 E1E7     		b	.L139
 1648              	.LVL80:
 1649              	.L152:
 660:Drivers/STM32F4xx_HAL_Driver/Src/stm32f4xx_hal_i2s_ex.c ****     /* Enable I2S peripheral before the I2Sext */
 1650              		.loc 1 660 5 view .LVU559
 1651 0188 A2F58062 		sub	r2, r2, #1024
 1652 018c B7E7     		b	.L140
 1653              	.LVL81:
 1654              	.L141:
 558:Drivers/STM32F4xx_HAL_Driver/Src/stm32f4xx_hal_i2s_ex.c ****   }
 1655              		.loc 1 558 12 view .LVU560
 1656 018e 0220     		movs	r0, #2
 1657              	.LVL82:
 1658              	.L128:
 666:Drivers/STM32F4xx_HAL_Driver/Src/stm32f4xx_hal_i2s_ex.c **** 
ARM GAS  C:\Users\ridel\AppData\Local\Temp\ccOCejYh.s 			page 59


 1659              		.loc 1 666 1 view .LVU561
 1660 0190 02B0     		add	sp, sp, #8
 1661              	.LCFI8:
 1662              		.cfi_remember_state
 1663              		.cfi_def_cfa_offset 16
 1664              		@ sp needed
 1665 0192 70BD     		pop	{r4, r5, r6, pc}
 1666              	.LVL83:
 1667              	.L142:
 1668              	.LCFI9:
 1669              		.cfi_restore_state
 567:Drivers/STM32F4xx_HAL_Driver/Src/stm32f4xx_hal_i2s_ex.c **** 
 1670              		.loc 1 567 3 view .LVU562
 1671 0194 0220     		movs	r0, #2
 1672 0196 FBE7     		b	.L128
 1673              	.LVL84:
 1674              	.L147:
 665:Drivers/STM32F4xx_HAL_Driver/Src/stm32f4xx_hal_i2s_ex.c **** }
 1675              		.loc 1 665 10 view .LVU563
 1676 0198 0020     		movs	r0, #0
 1677 019a F9E7     		b	.L128
 1678              	.L157:
 1679              		.align	2
 1680              	.L156:
 1681 019c 00000000 		.word	I2SEx_TxRxDMAHalfCplt
 1682 01a0 00000000 		.word	I2SEx_TxRxDMACplt
 1683 01a4 00000000 		.word	I2SEx_TxRxDMAError
 1684 01a8 00380040 		.word	1073756160
 1685 01ac 00340040 		.word	1073755136
 1686              		.cfi_endproc
 1687              	.LFE136:
 1689              		.section	.text.HAL_I2SEx_TxRxHalfCpltCallback,"ax",%progbits
 1690              		.align	1
 1691              		.weak	HAL_I2SEx_TxRxHalfCpltCallback
 1692              		.syntax unified
 1693              		.thumb
 1694              		.thumb_func
 1696              	HAL_I2SEx_TxRxHalfCpltCallback:
 1697              	.LVL85:
 1698              	.LFB138:
 820:Drivers/STM32F4xx_HAL_Driver/Src/stm32f4xx_hal_i2s_ex.c ****   /* Prevent unused argument(s) compilation warning */
 1699              		.loc 1 820 1 is_stmt 1 view -0
 1700              		.cfi_startproc
 1701              		@ args = 0, pretend = 0, frame = 0
 1702              		@ frame_needed = 0, uses_anonymous_args = 0
 1703              		@ link register save eliminated.
 822:Drivers/STM32F4xx_HAL_Driver/Src/stm32f4xx_hal_i2s_ex.c **** 
 1704              		.loc 1 822 3 view .LVU565
 827:Drivers/STM32F4xx_HAL_Driver/Src/stm32f4xx_hal_i2s_ex.c **** 
 1705              		.loc 1 827 1 is_stmt 0 view .LVU566
 1706 0000 7047     		bx	lr
 1707              		.cfi_endproc
 1708              	.LFE138:
 1710              		.section	.text.I2SEx_TxRxDMAHalfCplt,"ax",%progbits
 1711              		.align	1
 1712              		.syntax unified
 1713              		.thumb
ARM GAS  C:\Users\ridel\AppData\Local\Temp\ccOCejYh.s 			page 60


 1714              		.thumb_func
 1716              	I2SEx_TxRxDMAHalfCplt:
 1717              	.LVL86:
 1718              	.LFB140:
 863:Drivers/STM32F4xx_HAL_Driver/Src/stm32f4xx_hal_i2s_ex.c ****   I2S_HandleTypeDef *hi2s = (I2S_HandleTypeDef *)((DMA_HandleTypeDef *)hdma)->Parent;
 1719              		.loc 1 863 1 is_stmt 1 view -0
 1720              		.cfi_startproc
 1721              		@ args = 0, pretend = 0, frame = 0
 1722              		@ frame_needed = 0, uses_anonymous_args = 0
 863:Drivers/STM32F4xx_HAL_Driver/Src/stm32f4xx_hal_i2s_ex.c ****   I2S_HandleTypeDef *hi2s = (I2S_HandleTypeDef *)((DMA_HandleTypeDef *)hdma)->Parent;
 1723              		.loc 1 863 1 is_stmt 0 view .LVU568
 1724 0000 08B5     		push	{r3, lr}
 1725              	.LCFI10:
 1726              		.cfi_def_cfa_offset 8
 1727              		.cfi_offset 3, -8
 1728              		.cfi_offset 14, -4
 864:Drivers/STM32F4xx_HAL_Driver/Src/stm32f4xx_hal_i2s_ex.c **** 
 1729              		.loc 1 864 3 is_stmt 1 view .LVU569
 1730              	.LVL87:
 870:Drivers/STM32F4xx_HAL_Driver/Src/stm32f4xx_hal_i2s_ex.c **** #endif /* USE_HAL_I2S_REGISTER_CALLBACKS */
 1731              		.loc 1 870 3 view .LVU570
 1732 0002 806B     		ldr	r0, [r0, #56]
 1733              	.LVL88:
 870:Drivers/STM32F4xx_HAL_Driver/Src/stm32f4xx_hal_i2s_ex.c **** #endif /* USE_HAL_I2S_REGISTER_CALLBACKS */
 1734              		.loc 1 870 3 is_stmt 0 view .LVU571
 1735 0004 FFF7FEFF 		bl	HAL_I2SEx_TxRxHalfCpltCallback
 1736              	.LVL89:
 872:Drivers/STM32F4xx_HAL_Driver/Src/stm32f4xx_hal_i2s_ex.c **** 
 1737              		.loc 1 872 1 view .LVU572
 1738 0008 08BD     		pop	{r3, pc}
 1739              		.cfi_endproc
 1740              	.LFE140:
 1742              		.section	.text.HAL_I2SEx_TxRxCpltCallback,"ax",%progbits
 1743              		.align	1
 1744              		.weak	HAL_I2SEx_TxRxCpltCallback
 1745              		.syntax unified
 1746              		.thumb
 1747              		.thumb_func
 1749              	HAL_I2SEx_TxRxCpltCallback:
 1750              	.LVL90:
 1751              	.LFB139:
 835:Drivers/STM32F4xx_HAL_Driver/Src/stm32f4xx_hal_i2s_ex.c ****   /* Prevent unused argument(s) compilation warning */
 1752              		.loc 1 835 1 is_stmt 1 view -0
 1753              		.cfi_startproc
 1754              		@ args = 0, pretend = 0, frame = 0
 1755              		@ frame_needed = 0, uses_anonymous_args = 0
 1756              		@ link register save eliminated.
 837:Drivers/STM32F4xx_HAL_Driver/Src/stm32f4xx_hal_i2s_ex.c **** 
 1757              		.loc 1 837 3 view .LVU574
 842:Drivers/STM32F4xx_HAL_Driver/Src/stm32f4xx_hal_i2s_ex.c **** 
 1758              		.loc 1 842 1 is_stmt 0 view .LVU575
 1759 0000 7047     		bx	lr
 1760              		.cfi_endproc
 1761              	.LFE139:
 1763              		.section	.text.I2SEx_TxRxDMACplt,"ax",%progbits
 1764              		.align	1
 1765              		.syntax unified
ARM GAS  C:\Users\ridel\AppData\Local\Temp\ccOCejYh.s 			page 61


 1766              		.thumb
 1767              		.thumb_func
 1769              	I2SEx_TxRxDMACplt:
 1770              	.LVL91:
 1771              	.LFB141:
 881:Drivers/STM32F4xx_HAL_Driver/Src/stm32f4xx_hal_i2s_ex.c ****   I2S_HandleTypeDef *hi2s = (I2S_HandleTypeDef *)((DMA_HandleTypeDef *)hdma)->Parent;
 1772              		.loc 1 881 1 is_stmt 1 view -0
 1773              		.cfi_startproc
 1774              		@ args = 0, pretend = 0, frame = 0
 1775              		@ frame_needed = 0, uses_anonymous_args = 0
 881:Drivers/STM32F4xx_HAL_Driver/Src/stm32f4xx_hal_i2s_ex.c ****   I2S_HandleTypeDef *hi2s = (I2S_HandleTypeDef *)((DMA_HandleTypeDef *)hdma)->Parent;
 1776              		.loc 1 881 1 is_stmt 0 view .LVU577
 1777 0000 08B5     		push	{r3, lr}
 1778              	.LCFI11:
 1779              		.cfi_def_cfa_offset 8
 1780              		.cfi_offset 3, -8
 1781              		.cfi_offset 14, -4
 1782 0002 0346     		mov	r3, r0
 882:Drivers/STM32F4xx_HAL_Driver/Src/stm32f4xx_hal_i2s_ex.c **** 
 1783              		.loc 1 882 3 is_stmt 1 view .LVU578
 882:Drivers/STM32F4xx_HAL_Driver/Src/stm32f4xx_hal_i2s_ex.c **** 
 1784              		.loc 1 882 22 is_stmt 0 view .LVU579
 1785 0004 806B     		ldr	r0, [r0, #56]
 1786              	.LVL92:
 885:Drivers/STM32F4xx_HAL_Driver/Src/stm32f4xx_hal_i2s_ex.c ****   {
 1787              		.loc 1 885 3 is_stmt 1 view .LVU580
 885:Drivers/STM32F4xx_HAL_Driver/Src/stm32f4xx_hal_i2s_ex.c ****   {
 1788              		.loc 1 885 17 is_stmt 0 view .LVU581
 1789 0006 DB69     		ldr	r3, [r3, #28]
 1790              	.LVL93:
 885:Drivers/STM32F4xx_HAL_Driver/Src/stm32f4xx_hal_i2s_ex.c ****   {
 1791              		.loc 1 885 6 view .LVU582
 1792 0008 F3B9     		cbnz	r3, .L163
 887:Drivers/STM32F4xx_HAL_Driver/Src/stm32f4xx_hal_i2s_ex.c ****         ((hi2s->Instance->I2SCFGR & SPI_I2SCFGR_I2SCFG) == I2S_MODE_SLAVE_TX))
 1793              		.loc 1 887 5 is_stmt 1 view .LVU583
 887:Drivers/STM32F4xx_HAL_Driver/Src/stm32f4xx_hal_i2s_ex.c ****         ((hi2s->Instance->I2SCFGR & SPI_I2SCFGR_I2SCFG) == I2S_MODE_SLAVE_TX))
 1794              		.loc 1 887 15 is_stmt 0 view .LVU584
 1795 000a 0268     		ldr	r2, [r0]
 887:Drivers/STM32F4xx_HAL_Driver/Src/stm32f4xx_hal_i2s_ex.c ****         ((hi2s->Instance->I2SCFGR & SPI_I2SCFGR_I2SCFG) == I2S_MODE_SLAVE_TX))
 1796              		.loc 1 887 25 view .LVU585
 1797 000c D369     		ldr	r3, [r2, #28]
 887:Drivers/STM32F4xx_HAL_Driver/Src/stm32f4xx_hal_i2s_ex.c ****         ((hi2s->Instance->I2SCFGR & SPI_I2SCFGR_I2SCFG) == I2S_MODE_SLAVE_TX))
 1798              		.loc 1 887 35 view .LVU586
 1799 000e 03F44073 		and	r3, r3, #768
 887:Drivers/STM32F4xx_HAL_Driver/Src/stm32f4xx_hal_i2s_ex.c ****         ((hi2s->Instance->I2SCFGR & SPI_I2SCFGR_I2SCFG) == I2S_MODE_SLAVE_TX))
 1800              		.loc 1 887 8 view .LVU587
 1801 0012 B3F5007F 		cmp	r3, #512
 1802 0016 03D0     		beq	.L164
 888:Drivers/STM32F4xx_HAL_Driver/Src/stm32f4xx_hal_i2s_ex.c ****     /* Disable Tx & Rx DMA Requests */
 1803              		.loc 1 888 25 discriminator 1 view .LVU588
 1804 0018 D369     		ldr	r3, [r2, #28]
 887:Drivers/STM32F4xx_HAL_Driver/Src/stm32f4xx_hal_i2s_ex.c ****         ((hi2s->Instance->I2SCFGR & SPI_I2SCFGR_I2SCFG) == I2S_MODE_SLAVE_TX))
 1805              		.loc 1 887 80 discriminator 1 view .LVU589
 1806 001a 13F4407F 		tst	r3, #768
 1807 001e 18D1     		bne	.L165
 1808              	.L164:
 891:Drivers/STM32F4xx_HAL_Driver/Src/stm32f4xx_hal_i2s_ex.c ****       CLEAR_BIT(hi2s->Instance->CR2, SPI_CR2_TXDMAEN);
ARM GAS  C:\Users\ridel\AppData\Local\Temp\ccOCejYh.s 			page 62


 1809              		.loc 1 891 7 is_stmt 1 view .LVU590
 1810 0020 144B     		ldr	r3, .L174
 1811 0022 9A42     		cmp	r2, r3
 1812 0024 13D0     		beq	.L172
 1813 0026 4FF04022 		mov	r2, #1073758208
 1814              	.L166:
 891:Drivers/STM32F4xx_HAL_Driver/Src/stm32f4xx_hal_i2s_ex.c ****       CLEAR_BIT(hi2s->Instance->CR2, SPI_CR2_TXDMAEN);
 1815              		.loc 1 891 7 is_stmt 0 discriminator 4 view .LVU591
 1816 002a 5368     		ldr	r3, [r2, #4]
 1817 002c 23F00103 		bic	r3, r3, #1
 1818 0030 5360     		str	r3, [r2, #4]
 892:Drivers/STM32F4xx_HAL_Driver/Src/stm32f4xx_hal_i2s_ex.c ****     }
 1819              		.loc 1 892 7 is_stmt 1 discriminator 4 view .LVU592
 1820 0032 0268     		ldr	r2, [r0]
 1821 0034 5368     		ldr	r3, [r2, #4]
 1822 0036 23F00203 		bic	r3, r3, #2
 1823 003a 5360     		str	r3, [r2, #4]
 1824              	.L167:
 900:Drivers/STM32F4xx_HAL_Driver/Src/stm32f4xx_hal_i2s_ex.c ****     hi2s->TxXferCount = 0U;
 1825              		.loc 1 900 5 view .LVU593
 900:Drivers/STM32F4xx_HAL_Driver/Src/stm32f4xx_hal_i2s_ex.c ****     hi2s->TxXferCount = 0U;
 1826              		.loc 1 900 23 is_stmt 0 view .LVU594
 1827 003c 0023     		movs	r3, #0
 1828 003e 4386     		strh	r3, [r0, #50]	@ movhi
 901:Drivers/STM32F4xx_HAL_Driver/Src/stm32f4xx_hal_i2s_ex.c **** 
 1829              		.loc 1 901 5 is_stmt 1 view .LVU595
 901:Drivers/STM32F4xx_HAL_Driver/Src/stm32f4xx_hal_i2s_ex.c **** 
 1830              		.loc 1 901 23 is_stmt 0 view .LVU596
 1831 0040 4385     		strh	r3, [r0, #42]	@ movhi
 903:Drivers/STM32F4xx_HAL_Driver/Src/stm32f4xx_hal_i2s_ex.c ****   }
 1832              		.loc 1 903 5 is_stmt 1 view .LVU597
 903:Drivers/STM32F4xx_HAL_Driver/Src/stm32f4xx_hal_i2s_ex.c ****   }
 1833              		.loc 1 903 17 is_stmt 0 view .LVU598
 1834 0042 0123     		movs	r3, #1
 1835 0044 80F84130 		strb	r3, [r0, #65]
 1836              	.L163:
 910:Drivers/STM32F4xx_HAL_Driver/Src/stm32f4xx_hal_i2s_ex.c **** #endif /* USE_HAL_I2S_REGISTER_CALLBACKS */
 1837              		.loc 1 910 3 is_stmt 1 view .LVU599
 1838 0048 FFF7FEFF 		bl	HAL_I2SEx_TxRxCpltCallback
 1839              	.LVL94:
 912:Drivers/STM32F4xx_HAL_Driver/Src/stm32f4xx_hal_i2s_ex.c **** 
 1840              		.loc 1 912 1 is_stmt 0 view .LVU600
 1841 004c 08BD     		pop	{r3, pc}
 1842              	.LVL95:
 1843              	.L172:
 891:Drivers/STM32F4xx_HAL_Driver/Src/stm32f4xx_hal_i2s_ex.c ****       CLEAR_BIT(hi2s->Instance->CR2, SPI_CR2_TXDMAEN);
 1844              		.loc 1 891 7 view .LVU601
 1845 004e 0A4A     		ldr	r2, .L174+4
 1846 0050 EBE7     		b	.L166
 1847              	.L165:
 896:Drivers/STM32F4xx_HAL_Driver/Src/stm32f4xx_hal_i2s_ex.c ****       CLEAR_BIT(I2SxEXT(hi2s->Instance)->CR2, SPI_CR2_TXDMAEN);
 1848              		.loc 1 896 7 is_stmt 1 view .LVU602
 1849 0052 5368     		ldr	r3, [r2, #4]
 1850 0054 23F00103 		bic	r3, r3, #1
 1851 0058 5360     		str	r3, [r2, #4]
 897:Drivers/STM32F4xx_HAL_Driver/Src/stm32f4xx_hal_i2s_ex.c ****     }
 1852              		.loc 1 897 7 view .LVU603
ARM GAS  C:\Users\ridel\AppData\Local\Temp\ccOCejYh.s 			page 63


 1853 005a 0268     		ldr	r2, [r0]
 1854 005c 054B     		ldr	r3, .L174
 1855 005e 9A42     		cmp	r2, r3
 1856 0060 06D0     		beq	.L173
 1857 0062 4FF04022 		mov	r2, #1073758208
 1858              	.L168:
 897:Drivers/STM32F4xx_HAL_Driver/Src/stm32f4xx_hal_i2s_ex.c ****     }
 1859              		.loc 1 897 7 is_stmt 0 discriminator 4 view .LVU604
 1860 0066 5368     		ldr	r3, [r2, #4]
 1861 0068 23F00203 		bic	r3, r3, #2
 1862 006c 5360     		str	r3, [r2, #4]
 1863 006e E5E7     		b	.L167
 1864              	.L173:
 897:Drivers/STM32F4xx_HAL_Driver/Src/stm32f4xx_hal_i2s_ex.c ****     }
 1865              		.loc 1 897 7 view .LVU605
 1866 0070 014A     		ldr	r2, .L174+4
 1867 0072 F8E7     		b	.L168
 1868              	.L175:
 1869              		.align	2
 1870              	.L174:
 1871 0074 00380040 		.word	1073756160
 1872 0078 00340040 		.word	1073755136
 1873              		.cfi_endproc
 1874              	.LFE141:
 1876              		.section	.text.I2SEx_TxISR_I2S,"ax",%progbits
 1877              		.align	1
 1878              		.syntax unified
 1879              		.thumb
 1880              		.thumb_func
 1882              	I2SEx_TxISR_I2S:
 1883              	.LVL96:
 1884              	.LFB143:
 948:Drivers/STM32F4xx_HAL_Driver/Src/stm32f4xx_hal_i2s_ex.c ****   /* Write Data on DR register */
 1885              		.loc 1 948 1 is_stmt 1 view -0
 1886              		.cfi_startproc
 1887              		@ args = 0, pretend = 0, frame = 0
 1888              		@ frame_needed = 0, uses_anonymous_args = 0
 948:Drivers/STM32F4xx_HAL_Driver/Src/stm32f4xx_hal_i2s_ex.c ****   /* Write Data on DR register */
 1889              		.loc 1 948 1 is_stmt 0 view .LVU607
 1890 0000 08B5     		push	{r3, lr}
 1891              	.LCFI12:
 1892              		.cfi_def_cfa_offset 8
 1893              		.cfi_offset 3, -8
 1894              		.cfi_offset 14, -4
 950:Drivers/STM32F4xx_HAL_Driver/Src/stm32f4xx_hal_i2s_ex.c ****   hi2s->TxXferCount--;
 1895              		.loc 1 950 3 is_stmt 1 view .LVU608
 950:Drivers/STM32F4xx_HAL_Driver/Src/stm32f4xx_hal_i2s_ex.c ****   hi2s->TxXferCount--;
 1896              		.loc 1 950 30 is_stmt 0 view .LVU609
 1897 0002 436A     		ldr	r3, [r0, #36]
 950:Drivers/STM32F4xx_HAL_Driver/Src/stm32f4xx_hal_i2s_ex.c ****   hi2s->TxXferCount--;
 1898              		.loc 1 950 42 view .LVU610
 1899 0004 9A1C     		adds	r2, r3, #2
 1900 0006 4262     		str	r2, [r0, #36]
 950:Drivers/STM32F4xx_HAL_Driver/Src/stm32f4xx_hal_i2s_ex.c ****   hi2s->TxXferCount--;
 1901              		.loc 1 950 7 view .LVU611
 1902 0008 0268     		ldr	r2, [r0]
 950:Drivers/STM32F4xx_HAL_Driver/Src/stm32f4xx_hal_i2s_ex.c ****   hi2s->TxXferCount--;
ARM GAS  C:\Users\ridel\AppData\Local\Temp\ccOCejYh.s 			page 64


 1903              		.loc 1 950 25 view .LVU612
 1904 000a 1B88     		ldrh	r3, [r3]
 950:Drivers/STM32F4xx_HAL_Driver/Src/stm32f4xx_hal_i2s_ex.c ****   hi2s->TxXferCount--;
 1905              		.loc 1 950 22 view .LVU613
 1906 000c D360     		str	r3, [r2, #12]
 951:Drivers/STM32F4xx_HAL_Driver/Src/stm32f4xx_hal_i2s_ex.c **** 
 1907              		.loc 1 951 3 is_stmt 1 view .LVU614
 951:Drivers/STM32F4xx_HAL_Driver/Src/stm32f4xx_hal_i2s_ex.c **** 
 1908              		.loc 1 951 7 is_stmt 0 view .LVU615
 1909 000e 438D     		ldrh	r3, [r0, #42]
 1910 0010 9BB2     		uxth	r3, r3
 951:Drivers/STM32F4xx_HAL_Driver/Src/stm32f4xx_hal_i2s_ex.c **** 
 1911              		.loc 1 951 20 view .LVU616
 1912 0012 013B     		subs	r3, r3, #1
 1913 0014 9BB2     		uxth	r3, r3
 1914 0016 4385     		strh	r3, [r0, #42]	@ movhi
 953:Drivers/STM32F4xx_HAL_Driver/Src/stm32f4xx_hal_i2s_ex.c ****   {
 1915              		.loc 1 953 3 is_stmt 1 view .LVU617
 953:Drivers/STM32F4xx_HAL_Driver/Src/stm32f4xx_hal_i2s_ex.c ****   {
 1916              		.loc 1 953 11 is_stmt 0 view .LVU618
 1917 0018 438D     		ldrh	r3, [r0, #42]
 1918 001a 9BB2     		uxth	r3, r3
 953:Drivers/STM32F4xx_HAL_Driver/Src/stm32f4xx_hal_i2s_ex.c ****   {
 1919              		.loc 1 953 6 view .LVU619
 1920 001c 3BB9     		cbnz	r3, .L176
 956:Drivers/STM32F4xx_HAL_Driver/Src/stm32f4xx_hal_i2s_ex.c **** 
 1921              		.loc 1 956 5 is_stmt 1 view .LVU620
 1922 001e 0268     		ldr	r2, [r0]
 1923 0020 5368     		ldr	r3, [r2, #4]
 1924 0022 23F0A003 		bic	r3, r3, #160
 1925 0026 5360     		str	r3, [r2, #4]
 958:Drivers/STM32F4xx_HAL_Driver/Src/stm32f4xx_hal_i2s_ex.c ****     {
 1926              		.loc 1 958 5 view .LVU621
 958:Drivers/STM32F4xx_HAL_Driver/Src/stm32f4xx_hal_i2s_ex.c ****     {
 1927              		.loc 1 958 13 is_stmt 0 view .LVU622
 1928 0028 438E     		ldrh	r3, [r0, #50]
 1929 002a 9BB2     		uxth	r3, r3
 958:Drivers/STM32F4xx_HAL_Driver/Src/stm32f4xx_hal_i2s_ex.c ****     {
 1930              		.loc 1 958 8 view .LVU623
 1931 002c 03B1     		cbz	r3, .L179
 1932              	.LVL97:
 1933              	.L176:
 969:Drivers/STM32F4xx_HAL_Driver/Src/stm32f4xx_hal_i2s_ex.c **** 
 1934              		.loc 1 969 1 view .LVU624
 1935 002e 08BD     		pop	{r3, pc}
 1936              	.LVL98:
 1937              	.L179:
 960:Drivers/STM32F4xx_HAL_Driver/Src/stm32f4xx_hal_i2s_ex.c ****       /* Call user TxRx complete callback */
 1938              		.loc 1 960 7 is_stmt 1 view .LVU625
 960:Drivers/STM32F4xx_HAL_Driver/Src/stm32f4xx_hal_i2s_ex.c ****       /* Call user TxRx complete callback */
 1939              		.loc 1 960 19 is_stmt 0 view .LVU626
 1940 0030 0123     		movs	r3, #1
 1941 0032 80F84130 		strb	r3, [r0, #65]
 965:Drivers/STM32F4xx_HAL_Driver/Src/stm32f4xx_hal_i2s_ex.c **** #endif /* USE_HAL_I2S_REGISTER_CALLBACKS */
 1942              		.loc 1 965 7 is_stmt 1 view .LVU627
 1943 0036 FFF7FEFF 		bl	HAL_I2SEx_TxRxCpltCallback
 1944              	.LVL99:
ARM GAS  C:\Users\ridel\AppData\Local\Temp\ccOCejYh.s 			page 65


 969:Drivers/STM32F4xx_HAL_Driver/Src/stm32f4xx_hal_i2s_ex.c **** 
 1945              		.loc 1 969 1 is_stmt 0 view .LVU628
 1946 003a F8E7     		b	.L176
 1947              		.cfi_endproc
 1948              	.LFE143:
 1950              		.section	.text.I2SEx_RxISR_I2SExt,"ax",%progbits
 1951              		.align	1
 1952              		.syntax unified
 1953              		.thumb
 1954              		.thumb_func
 1956              	I2SEx_RxISR_I2SExt:
 1957              	.LVL100:
 1958              	.LFB146:
1035:Drivers/STM32F4xx_HAL_Driver/Src/stm32f4xx_hal_i2s_ex.c ****   /* Read Data from DR register */
 1959              		.loc 1 1035 1 is_stmt 1 view -0
 1960              		.cfi_startproc
 1961              		@ args = 0, pretend = 0, frame = 0
 1962              		@ frame_needed = 0, uses_anonymous_args = 0
1035:Drivers/STM32F4xx_HAL_Driver/Src/stm32f4xx_hal_i2s_ex.c ****   /* Read Data from DR register */
 1963              		.loc 1 1035 1 is_stmt 0 view .LVU630
 1964 0000 08B5     		push	{r3, lr}
 1965              	.LCFI13:
 1966              		.cfi_def_cfa_offset 8
 1967              		.cfi_offset 3, -8
 1968              		.cfi_offset 14, -4
1037:Drivers/STM32F4xx_HAL_Driver/Src/stm32f4xx_hal_i2s_ex.c ****   hi2s->RxXferCount--;
 1969              		.loc 1 1037 3 is_stmt 1 view .LVU631
1037:Drivers/STM32F4xx_HAL_Driver/Src/stm32f4xx_hal_i2s_ex.c ****   hi2s->RxXferCount--;
 1970              		.loc 1 1037 27 is_stmt 0 view .LVU632
 1971 0002 0268     		ldr	r2, [r0]
 1972 0004 154B     		ldr	r3, .L190
 1973 0006 9A42     		cmp	r2, r3
 1974 0008 1CD0     		beq	.L187
 1975 000a 4FF04023 		mov	r3, #1073758208
 1976              	.L181:
1037:Drivers/STM32F4xx_HAL_Driver/Src/stm32f4xx_hal_i2s_ex.c ****   hi2s->RxXferCount--;
 1977              		.loc 1 1037 50 discriminator 4 view .LVU633
 1978 000e DA68     		ldr	r2, [r3, #12]
1037:Drivers/STM32F4xx_HAL_Driver/Src/stm32f4xx_hal_i2s_ex.c ****   hi2s->RxXferCount--;
 1979              		.loc 1 1037 9 discriminator 4 view .LVU634
 1980 0010 C36A     		ldr	r3, [r0, #44]
1037:Drivers/STM32F4xx_HAL_Driver/Src/stm32f4xx_hal_i2s_ex.c ****   hi2s->RxXferCount--;
 1981              		.loc 1 1037 21 discriminator 4 view .LVU635
 1982 0012 991C     		adds	r1, r3, #2
 1983 0014 C162     		str	r1, [r0, #44]
1037:Drivers/STM32F4xx_HAL_Driver/Src/stm32f4xx_hal_i2s_ex.c ****   hi2s->RxXferCount--;
 1984              		.loc 1 1037 25 discriminator 4 view .LVU636
 1985 0016 1A80     		strh	r2, [r3]	@ movhi
1038:Drivers/STM32F4xx_HAL_Driver/Src/stm32f4xx_hal_i2s_ex.c **** 
 1986              		.loc 1 1038 3 is_stmt 1 discriminator 4 view .LVU637
1038:Drivers/STM32F4xx_HAL_Driver/Src/stm32f4xx_hal_i2s_ex.c **** 
 1987              		.loc 1 1038 7 is_stmt 0 discriminator 4 view .LVU638
 1988 0018 438E     		ldrh	r3, [r0, #50]
 1989 001a 9BB2     		uxth	r3, r3
1038:Drivers/STM32F4xx_HAL_Driver/Src/stm32f4xx_hal_i2s_ex.c **** 
 1990              		.loc 1 1038 20 discriminator 4 view .LVU639
 1991 001c 013B     		subs	r3, r3, #1
ARM GAS  C:\Users\ridel\AppData\Local\Temp\ccOCejYh.s 			page 66


 1992 001e 9BB2     		uxth	r3, r3
 1993 0020 4386     		strh	r3, [r0, #50]	@ movhi
1040:Drivers/STM32F4xx_HAL_Driver/Src/stm32f4xx_hal_i2s_ex.c ****   {
 1994              		.loc 1 1040 3 is_stmt 1 discriminator 4 view .LVU640
1040:Drivers/STM32F4xx_HAL_Driver/Src/stm32f4xx_hal_i2s_ex.c ****   {
 1995              		.loc 1 1040 11 is_stmt 0 discriminator 4 view .LVU641
 1996 0022 438E     		ldrh	r3, [r0, #50]
 1997 0024 9BB2     		uxth	r3, r3
1040:Drivers/STM32F4xx_HAL_Driver/Src/stm32f4xx_hal_i2s_ex.c ****   {
 1998              		.loc 1 1040 6 discriminator 4 view .LVU642
 1999 0026 63B9     		cbnz	r3, .L180
1043:Drivers/STM32F4xx_HAL_Driver/Src/stm32f4xx_hal_i2s_ex.c **** 
 2000              		.loc 1 1043 5 is_stmt 1 view .LVU643
 2001 0028 0268     		ldr	r2, [r0]
 2002 002a 0C4B     		ldr	r3, .L190
 2003 002c 9A42     		cmp	r2, r3
 2004 002e 0CD0     		beq	.L188
 2005 0030 4FF04022 		mov	r2, #1073758208
 2006              	.L183:
1043:Drivers/STM32F4xx_HAL_Driver/Src/stm32f4xx_hal_i2s_ex.c **** 
 2007              		.loc 1 1043 5 is_stmt 0 discriminator 4 view .LVU644
 2008 0034 5368     		ldr	r3, [r2, #4]
 2009 0036 23F06003 		bic	r3, r3, #96
 2010 003a 5360     		str	r3, [r2, #4]
1045:Drivers/STM32F4xx_HAL_Driver/Src/stm32f4xx_hal_i2s_ex.c ****     {
 2011              		.loc 1 1045 5 is_stmt 1 discriminator 4 view .LVU645
1045:Drivers/STM32F4xx_HAL_Driver/Src/stm32f4xx_hal_i2s_ex.c ****     {
 2012              		.loc 1 1045 13 is_stmt 0 discriminator 4 view .LVU646
 2013 003c 438D     		ldrh	r3, [r0, #42]
 2014 003e 9BB2     		uxth	r3, r3
1045:Drivers/STM32F4xx_HAL_Driver/Src/stm32f4xx_hal_i2s_ex.c ****     {
 2015              		.loc 1 1045 8 discriminator 4 view .LVU647
 2016 0040 2BB1     		cbz	r3, .L189
 2017              	.LVL101:
 2018              	.L180:
1056:Drivers/STM32F4xx_HAL_Driver/Src/stm32f4xx_hal_i2s_ex.c **** 
 2019              		.loc 1 1056 1 view .LVU648
 2020 0042 08BD     		pop	{r3, pc}
 2021              	.LVL102:
 2022              	.L187:
1037:Drivers/STM32F4xx_HAL_Driver/Src/stm32f4xx_hal_i2s_ex.c ****   hi2s->RxXferCount--;
 2023              		.loc 1 1037 27 view .LVU649
 2024 0044 A3F58063 		sub	r3, r3, #1024
 2025 0048 E1E7     		b	.L181
 2026              	.L188:
1043:Drivers/STM32F4xx_HAL_Driver/Src/stm32f4xx_hal_i2s_ex.c **** 
 2027              		.loc 1 1043 5 view .LVU650
 2028 004a 054A     		ldr	r2, .L190+4
 2029 004c F2E7     		b	.L183
 2030              	.L189:
1047:Drivers/STM32F4xx_HAL_Driver/Src/stm32f4xx_hal_i2s_ex.c ****       /* Call user TxRx complete callback */
 2031              		.loc 1 1047 7 is_stmt 1 view .LVU651
1047:Drivers/STM32F4xx_HAL_Driver/Src/stm32f4xx_hal_i2s_ex.c ****       /* Call user TxRx complete callback */
 2032              		.loc 1 1047 19 is_stmt 0 view .LVU652
 2033 004e 0123     		movs	r3, #1
 2034 0050 80F84130 		strb	r3, [r0, #65]
1052:Drivers/STM32F4xx_HAL_Driver/Src/stm32f4xx_hal_i2s_ex.c **** #endif /* USE_HAL_I2S_REGISTER_CALLBACKS */
ARM GAS  C:\Users\ridel\AppData\Local\Temp\ccOCejYh.s 			page 67


 2035              		.loc 1 1052 7 is_stmt 1 view .LVU653
 2036 0054 FFF7FEFF 		bl	HAL_I2SEx_TxRxCpltCallback
 2037              	.LVL103:
1056:Drivers/STM32F4xx_HAL_Driver/Src/stm32f4xx_hal_i2s_ex.c **** 
 2038              		.loc 1 1056 1 is_stmt 0 view .LVU654
 2039 0058 F3E7     		b	.L180
 2040              	.L191:
 2041 005a 00BF     		.align	2
 2042              	.L190:
 2043 005c 00380040 		.word	1073756160
 2044 0060 00340040 		.word	1073755136
 2045              		.cfi_endproc
 2046              	.LFE146:
 2048              		.section	.text.I2SEx_TxISR_I2SExt,"ax",%progbits
 2049              		.align	1
 2050              		.syntax unified
 2051              		.thumb
 2052              		.thumb_func
 2054              	I2SEx_TxISR_I2SExt:
 2055              	.LVL104:
 2056              	.LFB144:
 977:Drivers/STM32F4xx_HAL_Driver/Src/stm32f4xx_hal_i2s_ex.c ****   /* Write Data on DR register */
 2057              		.loc 1 977 1 is_stmt 1 view -0
 2058              		.cfi_startproc
 2059              		@ args = 0, pretend = 0, frame = 0
 2060              		@ frame_needed = 0, uses_anonymous_args = 0
 977:Drivers/STM32F4xx_HAL_Driver/Src/stm32f4xx_hal_i2s_ex.c ****   /* Write Data on DR register */
 2061              		.loc 1 977 1 is_stmt 0 view .LVU656
 2062 0000 08B5     		push	{r3, lr}
 2063              	.LCFI14:
 2064              		.cfi_def_cfa_offset 8
 2065              		.cfi_offset 3, -8
 2066              		.cfi_offset 14, -4
 979:Drivers/STM32F4xx_HAL_Driver/Src/stm32f4xx_hal_i2s_ex.c ****   hi2s->TxXferCount--;
 2067              		.loc 1 979 3 is_stmt 1 view .LVU657
 979:Drivers/STM32F4xx_HAL_Driver/Src/stm32f4xx_hal_i2s_ex.c ****   hi2s->TxXferCount--;
 2068              		.loc 1 979 39 is_stmt 0 view .LVU658
 2069 0002 436A     		ldr	r3, [r0, #36]
 979:Drivers/STM32F4xx_HAL_Driver/Src/stm32f4xx_hal_i2s_ex.c ****   hi2s->TxXferCount--;
 2070              		.loc 1 979 51 view .LVU659
 2071 0004 9A1C     		adds	r2, r3, #2
 2072 0006 4262     		str	r2, [r0, #36]
 979:Drivers/STM32F4xx_HAL_Driver/Src/stm32f4xx_hal_i2s_ex.c ****   hi2s->TxXferCount--;
 2073              		.loc 1 979 34 view .LVU660
 2074 0008 1A88     		ldrh	r2, [r3]
 979:Drivers/STM32F4xx_HAL_Driver/Src/stm32f4xx_hal_i2s_ex.c ****   hi2s->TxXferCount--;
 2075              		.loc 1 979 3 view .LVU661
 2076 000a 0168     		ldr	r1, [r0]
 2077 000c 134B     		ldr	r3, .L202
 2078 000e 9942     		cmp	r1, r3
 2079 0010 18D0     		beq	.L199
 2080 0012 4FF04023 		mov	r3, #1073758208
 2081              	.L193:
 979:Drivers/STM32F4xx_HAL_Driver/Src/stm32f4xx_hal_i2s_ex.c ****   hi2s->TxXferCount--;
 2082              		.loc 1 979 31 discriminator 4 view .LVU662
 2083 0016 DA60     		str	r2, [r3, #12]
 980:Drivers/STM32F4xx_HAL_Driver/Src/stm32f4xx_hal_i2s_ex.c **** 
ARM GAS  C:\Users\ridel\AppData\Local\Temp\ccOCejYh.s 			page 68


 2084              		.loc 1 980 3 is_stmt 1 discriminator 4 view .LVU663
 980:Drivers/STM32F4xx_HAL_Driver/Src/stm32f4xx_hal_i2s_ex.c **** 
 2085              		.loc 1 980 7 is_stmt 0 discriminator 4 view .LVU664
 2086 0018 438D     		ldrh	r3, [r0, #42]
 2087 001a 9BB2     		uxth	r3, r3
 980:Drivers/STM32F4xx_HAL_Driver/Src/stm32f4xx_hal_i2s_ex.c **** 
 2088              		.loc 1 980 20 discriminator 4 view .LVU665
 2089 001c 013B     		subs	r3, r3, #1
 2090 001e 9BB2     		uxth	r3, r3
 2091 0020 4385     		strh	r3, [r0, #42]	@ movhi
 982:Drivers/STM32F4xx_HAL_Driver/Src/stm32f4xx_hal_i2s_ex.c ****   {
 2092              		.loc 1 982 3 is_stmt 1 discriminator 4 view .LVU666
 982:Drivers/STM32F4xx_HAL_Driver/Src/stm32f4xx_hal_i2s_ex.c ****   {
 2093              		.loc 1 982 11 is_stmt 0 discriminator 4 view .LVU667
 2094 0022 438D     		ldrh	r3, [r0, #42]
 2095 0024 9BB2     		uxth	r3, r3
 982:Drivers/STM32F4xx_HAL_Driver/Src/stm32f4xx_hal_i2s_ex.c ****   {
 2096              		.loc 1 982 6 discriminator 4 view .LVU668
 2097 0026 63B9     		cbnz	r3, .L192
 985:Drivers/STM32F4xx_HAL_Driver/Src/stm32f4xx_hal_i2s_ex.c **** 
 2098              		.loc 1 985 5 is_stmt 1 view .LVU669
 2099 0028 0268     		ldr	r2, [r0]
 2100 002a 0C4B     		ldr	r3, .L202
 2101 002c 9A42     		cmp	r2, r3
 2102 002e 0CD0     		beq	.L200
 2103 0030 4FF04022 		mov	r2, #1073758208
 2104              	.L195:
 985:Drivers/STM32F4xx_HAL_Driver/Src/stm32f4xx_hal_i2s_ex.c **** 
 2105              		.loc 1 985 5 is_stmt 0 discriminator 4 view .LVU670
 2106 0034 5368     		ldr	r3, [r2, #4]
 2107 0036 23F0A003 		bic	r3, r3, #160
 2108 003a 5360     		str	r3, [r2, #4]
 987:Drivers/STM32F4xx_HAL_Driver/Src/stm32f4xx_hal_i2s_ex.c ****     {
 2109              		.loc 1 987 5 is_stmt 1 discriminator 4 view .LVU671
 987:Drivers/STM32F4xx_HAL_Driver/Src/stm32f4xx_hal_i2s_ex.c ****     {
 2110              		.loc 1 987 13 is_stmt 0 discriminator 4 view .LVU672
 2111 003c 438E     		ldrh	r3, [r0, #50]
 2112 003e 9BB2     		uxth	r3, r3
 987:Drivers/STM32F4xx_HAL_Driver/Src/stm32f4xx_hal_i2s_ex.c ****     {
 2113              		.loc 1 987 8 discriminator 4 view .LVU673
 2114 0040 2BB1     		cbz	r3, .L201
 2115              	.LVL105:
 2116              	.L192:
 998:Drivers/STM32F4xx_HAL_Driver/Src/stm32f4xx_hal_i2s_ex.c **** 
 2117              		.loc 1 998 1 view .LVU674
 2118 0042 08BD     		pop	{r3, pc}
 2119              	.LVL106:
 2120              	.L199:
 979:Drivers/STM32F4xx_HAL_Driver/Src/stm32f4xx_hal_i2s_ex.c ****   hi2s->TxXferCount--;
 2121              		.loc 1 979 3 view .LVU675
 2122 0044 A3F58063 		sub	r3, r3, #1024
 2123 0048 E5E7     		b	.L193
 2124              	.L200:
 985:Drivers/STM32F4xx_HAL_Driver/Src/stm32f4xx_hal_i2s_ex.c **** 
 2125              		.loc 1 985 5 view .LVU676
 2126 004a 054A     		ldr	r2, .L202+4
 2127 004c F2E7     		b	.L195
ARM GAS  C:\Users\ridel\AppData\Local\Temp\ccOCejYh.s 			page 69


 2128              	.L201:
 989:Drivers/STM32F4xx_HAL_Driver/Src/stm32f4xx_hal_i2s_ex.c ****       /* Call user TxRx complete callback */
 2129              		.loc 1 989 7 is_stmt 1 view .LVU677
 989:Drivers/STM32F4xx_HAL_Driver/Src/stm32f4xx_hal_i2s_ex.c ****       /* Call user TxRx complete callback */
 2130              		.loc 1 989 19 is_stmt 0 view .LVU678
 2131 004e 0123     		movs	r3, #1
 2132 0050 80F84130 		strb	r3, [r0, #65]
 994:Drivers/STM32F4xx_HAL_Driver/Src/stm32f4xx_hal_i2s_ex.c **** #endif /* USE_HAL_I2S_REGISTER_CALLBACKS */
 2133              		.loc 1 994 7 is_stmt 1 view .LVU679
 2134 0054 FFF7FEFF 		bl	HAL_I2SEx_TxRxCpltCallback
 2135              	.LVL107:
 998:Drivers/STM32F4xx_HAL_Driver/Src/stm32f4xx_hal_i2s_ex.c **** 
 2136              		.loc 1 998 1 is_stmt 0 view .LVU680
 2137 0058 F3E7     		b	.L192
 2138              	.L203:
 2139 005a 00BF     		.align	2
 2140              	.L202:
 2141 005c 00380040 		.word	1073756160
 2142 0060 00340040 		.word	1073755136
 2143              		.cfi_endproc
 2144              	.LFE144:
 2146              		.section	.text.I2SEx_RxISR_I2S,"ax",%progbits
 2147              		.align	1
 2148              		.syntax unified
 2149              		.thumb
 2150              		.thumb_func
 2152              	I2SEx_RxISR_I2S:
 2153              	.LVL108:
 2154              	.LFB145:
1006:Drivers/STM32F4xx_HAL_Driver/Src/stm32f4xx_hal_i2s_ex.c ****   /* Read Data from DR register */
 2155              		.loc 1 1006 1 is_stmt 1 view -0
 2156              		.cfi_startproc
 2157              		@ args = 0, pretend = 0, frame = 0
 2158              		@ frame_needed = 0, uses_anonymous_args = 0
1006:Drivers/STM32F4xx_HAL_Driver/Src/stm32f4xx_hal_i2s_ex.c ****   /* Read Data from DR register */
 2159              		.loc 1 1006 1 is_stmt 0 view .LVU682
 2160 0000 08B5     		push	{r3, lr}
 2161              	.LCFI15:
 2162              		.cfi_def_cfa_offset 8
 2163              		.cfi_offset 3, -8
 2164              		.cfi_offset 14, -4
1008:Drivers/STM32F4xx_HAL_Driver/Src/stm32f4xx_hal_i2s_ex.c ****   hi2s->RxXferCount--;
 2165              		.loc 1 1008 3 is_stmt 1 view .LVU683
1008:Drivers/STM32F4xx_HAL_Driver/Src/stm32f4xx_hal_i2s_ex.c ****   hi2s->RxXferCount--;
 2166              		.loc 1 1008 31 is_stmt 0 view .LVU684
 2167 0002 0368     		ldr	r3, [r0]
1008:Drivers/STM32F4xx_HAL_Driver/Src/stm32f4xx_hal_i2s_ex.c ****   hi2s->RxXferCount--;
 2168              		.loc 1 1008 41 view .LVU685
 2169 0004 DA68     		ldr	r2, [r3, #12]
1008:Drivers/STM32F4xx_HAL_Driver/Src/stm32f4xx_hal_i2s_ex.c ****   hi2s->RxXferCount--;
 2170              		.loc 1 1008 9 view .LVU686
 2171 0006 C36A     		ldr	r3, [r0, #44]
1008:Drivers/STM32F4xx_HAL_Driver/Src/stm32f4xx_hal_i2s_ex.c ****   hi2s->RxXferCount--;
 2172              		.loc 1 1008 21 view .LVU687
 2173 0008 991C     		adds	r1, r3, #2
 2174 000a C162     		str	r1, [r0, #44]
1008:Drivers/STM32F4xx_HAL_Driver/Src/stm32f4xx_hal_i2s_ex.c ****   hi2s->RxXferCount--;
ARM GAS  C:\Users\ridel\AppData\Local\Temp\ccOCejYh.s 			page 70


 2175              		.loc 1 1008 25 view .LVU688
 2176 000c 1A80     		strh	r2, [r3]	@ movhi
1009:Drivers/STM32F4xx_HAL_Driver/Src/stm32f4xx_hal_i2s_ex.c **** 
 2177              		.loc 1 1009 3 is_stmt 1 view .LVU689
1009:Drivers/STM32F4xx_HAL_Driver/Src/stm32f4xx_hal_i2s_ex.c **** 
 2178              		.loc 1 1009 7 is_stmt 0 view .LVU690
 2179 000e 438E     		ldrh	r3, [r0, #50]
 2180 0010 9BB2     		uxth	r3, r3
1009:Drivers/STM32F4xx_HAL_Driver/Src/stm32f4xx_hal_i2s_ex.c **** 
 2181              		.loc 1 1009 20 view .LVU691
 2182 0012 013B     		subs	r3, r3, #1
 2183 0014 9BB2     		uxth	r3, r3
 2184 0016 4386     		strh	r3, [r0, #50]	@ movhi
1011:Drivers/STM32F4xx_HAL_Driver/Src/stm32f4xx_hal_i2s_ex.c ****   {
 2185              		.loc 1 1011 3 is_stmt 1 view .LVU692
1011:Drivers/STM32F4xx_HAL_Driver/Src/stm32f4xx_hal_i2s_ex.c ****   {
 2186              		.loc 1 1011 11 is_stmt 0 view .LVU693
 2187 0018 438E     		ldrh	r3, [r0, #50]
 2188 001a 9BB2     		uxth	r3, r3
1011:Drivers/STM32F4xx_HAL_Driver/Src/stm32f4xx_hal_i2s_ex.c ****   {
 2189              		.loc 1 1011 6 view .LVU694
 2190 001c 3BB9     		cbnz	r3, .L204
1014:Drivers/STM32F4xx_HAL_Driver/Src/stm32f4xx_hal_i2s_ex.c **** 
 2191              		.loc 1 1014 5 is_stmt 1 view .LVU695
 2192 001e 0268     		ldr	r2, [r0]
 2193 0020 5368     		ldr	r3, [r2, #4]
 2194 0022 23F06003 		bic	r3, r3, #96
 2195 0026 5360     		str	r3, [r2, #4]
1016:Drivers/STM32F4xx_HAL_Driver/Src/stm32f4xx_hal_i2s_ex.c ****     {
 2196              		.loc 1 1016 5 view .LVU696
1016:Drivers/STM32F4xx_HAL_Driver/Src/stm32f4xx_hal_i2s_ex.c ****     {
 2197              		.loc 1 1016 13 is_stmt 0 view .LVU697
 2198 0028 438D     		ldrh	r3, [r0, #42]
 2199 002a 9BB2     		uxth	r3, r3
1016:Drivers/STM32F4xx_HAL_Driver/Src/stm32f4xx_hal_i2s_ex.c ****     {
 2200              		.loc 1 1016 8 view .LVU698
 2201 002c 03B1     		cbz	r3, .L207
 2202              	.LVL109:
 2203              	.L204:
1027:Drivers/STM32F4xx_HAL_Driver/Src/stm32f4xx_hal_i2s_ex.c **** 
 2204              		.loc 1 1027 1 view .LVU699
 2205 002e 08BD     		pop	{r3, pc}
 2206              	.LVL110:
 2207              	.L207:
1018:Drivers/STM32F4xx_HAL_Driver/Src/stm32f4xx_hal_i2s_ex.c ****       /* Call user TxRx complete callback */
 2208              		.loc 1 1018 7 is_stmt 1 view .LVU700
1018:Drivers/STM32F4xx_HAL_Driver/Src/stm32f4xx_hal_i2s_ex.c ****       /* Call user TxRx complete callback */
 2209              		.loc 1 1018 19 is_stmt 0 view .LVU701
 2210 0030 0123     		movs	r3, #1
 2211 0032 80F84130 		strb	r3, [r0, #65]
1023:Drivers/STM32F4xx_HAL_Driver/Src/stm32f4xx_hal_i2s_ex.c **** #endif /* USE_HAL_I2S_REGISTER_CALLBACKS */
 2212              		.loc 1 1023 7 is_stmt 1 view .LVU702
 2213 0036 FFF7FEFF 		bl	HAL_I2SEx_TxRxCpltCallback
 2214              	.LVL111:
1027:Drivers/STM32F4xx_HAL_Driver/Src/stm32f4xx_hal_i2s_ex.c **** 
 2215              		.loc 1 1027 1 is_stmt 0 view .LVU703
 2216 003a F8E7     		b	.L204
ARM GAS  C:\Users\ridel\AppData\Local\Temp\ccOCejYh.s 			page 71


 2217              		.cfi_endproc
 2218              	.LFE145:
 2220              		.section	.text.HAL_I2SEx_FullDuplex_IRQHandler,"ax",%progbits
 2221              		.align	1
 2222              		.global	HAL_I2SEx_FullDuplex_IRQHandler
 2223              		.syntax unified
 2224              		.thumb
 2225              		.thumb_func
 2227              	HAL_I2SEx_FullDuplex_IRQHandler:
 2228              	.LVL112:
 2229              	.LFB137:
 674:Drivers/STM32F4xx_HAL_Driver/Src/stm32f4xx_hal_i2s_ex.c ****   __IO uint32_t i2ssr     = hi2s->Instance->SR;
 2230              		.loc 1 674 1 is_stmt 1 view -0
 2231              		.cfi_startproc
 2232              		@ args = 0, pretend = 0, frame = 24
 2233              		@ frame_needed = 0, uses_anonymous_args = 0
 674:Drivers/STM32F4xx_HAL_Driver/Src/stm32f4xx_hal_i2s_ex.c ****   __IO uint32_t i2ssr     = hi2s->Instance->SR;
 2234              		.loc 1 674 1 is_stmt 0 view .LVU705
 2235 0000 10B5     		push	{r4, lr}
 2236              	.LCFI16:
 2237              		.cfi_def_cfa_offset 8
 2238              		.cfi_offset 4, -8
 2239              		.cfi_offset 14, -4
 2240 0002 86B0     		sub	sp, sp, #24
 2241              	.LCFI17:
 2242              		.cfi_def_cfa_offset 32
 2243 0004 0446     		mov	r4, r0
 675:Drivers/STM32F4xx_HAL_Driver/Src/stm32f4xx_hal_i2s_ex.c ****   __IO uint32_t i2sextsr  = I2SxEXT(hi2s->Instance)->SR;
 2244              		.loc 1 675 3 is_stmt 1 view .LVU706
 675:Drivers/STM32F4xx_HAL_Driver/Src/stm32f4xx_hal_i2s_ex.c ****   __IO uint32_t i2sextsr  = I2SxEXT(hi2s->Instance)->SR;
 2245              		.loc 1 675 33 is_stmt 0 view .LVU707
 2246 0006 0368     		ldr	r3, [r0]
 675:Drivers/STM32F4xx_HAL_Driver/Src/stm32f4xx_hal_i2s_ex.c ****   __IO uint32_t i2sextsr  = I2SxEXT(hi2s->Instance)->SR;
 2247              		.loc 1 675 43 view .LVU708
 2248 0008 9A68     		ldr	r2, [r3, #8]
 675:Drivers/STM32F4xx_HAL_Driver/Src/stm32f4xx_hal_i2s_ex.c ****   __IO uint32_t i2sextsr  = I2SxEXT(hi2s->Instance)->SR;
 2249              		.loc 1 675 17 view .LVU709
 2250 000a 0592     		str	r2, [sp, #20]
 676:Drivers/STM32F4xx_HAL_Driver/Src/stm32f4xx_hal_i2s_ex.c ****   __IO uint32_t i2scr2    = hi2s->Instance->CR2;
 2251              		.loc 1 676 3 is_stmt 1 view .LVU710
 676:Drivers/STM32F4xx_HAL_Driver/Src/stm32f4xx_hal_i2s_ex.c ****   __IO uint32_t i2scr2    = hi2s->Instance->CR2;
 2252              		.loc 1 676 29 is_stmt 0 view .LVU711
 2253 000c 704A     		ldr	r2, .L238
 2254 000e 9342     		cmp	r3, r2
 2255 0010 6FD0     		beq	.L229
 2256 0012 4FF04022 		mov	r2, #1073758208
 2257              	.L209:
 676:Drivers/STM32F4xx_HAL_Driver/Src/stm32f4xx_hal_i2s_ex.c ****   __IO uint32_t i2scr2    = hi2s->Instance->CR2;
 2258              		.loc 1 676 52 discriminator 4 view .LVU712
 2259 0016 9168     		ldr	r1, [r2, #8]
 676:Drivers/STM32F4xx_HAL_Driver/Src/stm32f4xx_hal_i2s_ex.c ****   __IO uint32_t i2scr2    = hi2s->Instance->CR2;
 2260              		.loc 1 676 17 discriminator 4 view .LVU713
 2261 0018 0491     		str	r1, [sp, #16]
 677:Drivers/STM32F4xx_HAL_Driver/Src/stm32f4xx_hal_i2s_ex.c ****   __IO uint32_t i2sextcr2 = I2SxEXT(hi2s->Instance)->CR2;
 2262              		.loc 1 677 3 is_stmt 1 discriminator 4 view .LVU714
 677:Drivers/STM32F4xx_HAL_Driver/Src/stm32f4xx_hal_i2s_ex.c ****   __IO uint32_t i2sextcr2 = I2SxEXT(hi2s->Instance)->CR2;
 2263              		.loc 1 677 43 is_stmt 0 discriminator 4 view .LVU715
ARM GAS  C:\Users\ridel\AppData\Local\Temp\ccOCejYh.s 			page 72


 2264 001a 5B68     		ldr	r3, [r3, #4]
 677:Drivers/STM32F4xx_HAL_Driver/Src/stm32f4xx_hal_i2s_ex.c ****   __IO uint32_t i2sextcr2 = I2SxEXT(hi2s->Instance)->CR2;
 2265              		.loc 1 677 17 discriminator 4 view .LVU716
 2266 001c 0393     		str	r3, [sp, #12]
 678:Drivers/STM32F4xx_HAL_Driver/Src/stm32f4xx_hal_i2s_ex.c **** 
 2267              		.loc 1 678 3 is_stmt 1 discriminator 4 view .LVU717
 678:Drivers/STM32F4xx_HAL_Driver/Src/stm32f4xx_hal_i2s_ex.c **** 
 2268              		.loc 1 678 52 is_stmt 0 discriminator 4 view .LVU718
 2269 001e 5368     		ldr	r3, [r2, #4]
 678:Drivers/STM32F4xx_HAL_Driver/Src/stm32f4xx_hal_i2s_ex.c **** 
 2270              		.loc 1 678 17 discriminator 4 view .LVU719
 2271 0020 0293     		str	r3, [sp, #8]
 681:Drivers/STM32F4xx_HAL_Driver/Src/stm32f4xx_hal_i2s_ex.c ****   {
 2272              		.loc 1 681 3 is_stmt 1 discriminator 4 view .LVU720
 681:Drivers/STM32F4xx_HAL_Driver/Src/stm32f4xx_hal_i2s_ex.c ****   {
 2273              		.loc 1 681 18 is_stmt 0 discriminator 4 view .LVU721
 2274 0022 6368     		ldr	r3, [r4, #4]
 681:Drivers/STM32F4xx_HAL_Driver/Src/stm32f4xx_hal_i2s_ex.c ****   {
 2275              		.loc 1 681 6 discriminator 4 view .LVU722
 2276 0024 B3F5007F 		cmp	r3, #512
 2277 0028 01D0     		beq	.L210
 681:Drivers/STM32F4xx_HAL_Driver/Src/stm32f4xx_hal_i2s_ex.c ****   {
 2278              		.loc 1 681 47 discriminator 1 view .LVU723
 2279 002a 002B     		cmp	r3, #0
 2280 002c 70D1     		bne	.L211
 2281              	.L210:
 684:Drivers/STM32F4xx_HAL_Driver/Src/stm32f4xx_hal_i2s_ex.c ****     {
 2282              		.loc 1 684 5 is_stmt 1 view .LVU724
 684:Drivers/STM32F4xx_HAL_Driver/Src/stm32f4xx_hal_i2s_ex.c ****     {
 2283              		.loc 1 684 17 is_stmt 0 view .LVU725
 2284 002e 059B     		ldr	r3, [sp, #20]
 684:Drivers/STM32F4xx_HAL_Driver/Src/stm32f4xx_hal_i2s_ex.c ****     {
 2285              		.loc 1 684 8 view .LVU726
 2286 0030 13F0020F 		tst	r3, #2
 2287 0034 03D0     		beq	.L212
 684:Drivers/STM32F4xx_HAL_Driver/Src/stm32f4xx_hal_i2s_ex.c ****     {
 2288              		.loc 1 684 62 discriminator 1 view .LVU727
 2289 0036 039B     		ldr	r3, [sp, #12]
 684:Drivers/STM32F4xx_HAL_Driver/Src/stm32f4xx_hal_i2s_ex.c ****     {
 2290              		.loc 1 684 50 discriminator 1 view .LVU728
 2291 0038 13F0800F 		tst	r3, #128
 2292 003c 5CD1     		bne	.L230
 2293              	.LVL113:
 2294              	.L212:
 692:Drivers/STM32F4xx_HAL_Driver/Src/stm32f4xx_hal_i2s_ex.c ****     {
 2295              		.loc 1 692 5 is_stmt 1 view .LVU729
 692:Drivers/STM32F4xx_HAL_Driver/Src/stm32f4xx_hal_i2s_ex.c ****     {
 2296              		.loc 1 692 20 is_stmt 0 view .LVU730
 2297 003e 049B     		ldr	r3, [sp, #16]
 692:Drivers/STM32F4xx_HAL_Driver/Src/stm32f4xx_hal_i2s_ex.c ****     {
 2298              		.loc 1 692 8 view .LVU731
 2299 0040 13F0010F 		tst	r3, #1
 2300 0044 03D0     		beq	.L213
 692:Drivers/STM32F4xx_HAL_Driver/Src/stm32f4xx_hal_i2s_ex.c ****     {
 2301              		.loc 1 692 70 discriminator 1 view .LVU732
 2302 0046 029B     		ldr	r3, [sp, #8]
 692:Drivers/STM32F4xx_HAL_Driver/Src/stm32f4xx_hal_i2s_ex.c ****     {
ARM GAS  C:\Users\ridel\AppData\Local\Temp\ccOCejYh.s 			page 73


 2303              		.loc 1 692 55 discriminator 1 view .LVU733
 2304 0048 13F0400F 		tst	r3, #64
 2305 004c 58D1     		bne	.L231
 2306              	.L213:
 700:Drivers/STM32F4xx_HAL_Driver/Src/stm32f4xx_hal_i2s_ex.c ****     {
 2307              		.loc 1 700 5 is_stmt 1 view .LVU734
 700:Drivers/STM32F4xx_HAL_Driver/Src/stm32f4xx_hal_i2s_ex.c ****     {
 2308              		.loc 1 700 20 is_stmt 0 view .LVU735
 2309 004e 049B     		ldr	r3, [sp, #16]
 700:Drivers/STM32F4xx_HAL_Driver/Src/stm32f4xx_hal_i2s_ex.c ****     {
 2310              		.loc 1 700 8 view .LVU736
 2311 0050 13F0400F 		tst	r3, #64
 2312 0054 24D0     		beq	.L214
 700:Drivers/STM32F4xx_HAL_Driver/Src/stm32f4xx_hal_i2s_ex.c ****     {
 2313              		.loc 1 700 68 discriminator 1 view .LVU737
 2314 0056 029B     		ldr	r3, [sp, #8]
 700:Drivers/STM32F4xx_HAL_Driver/Src/stm32f4xx_hal_i2s_ex.c ****     {
 2315              		.loc 1 700 53 discriminator 1 view .LVU738
 2316 0058 13F0200F 		tst	r3, #32
 2317 005c 20D0     		beq	.L214
 703:Drivers/STM32F4xx_HAL_Driver/Src/stm32f4xx_hal_i2s_ex.c **** 
 2318              		.loc 1 703 7 is_stmt 1 view .LVU739
 2319 005e 2268     		ldr	r2, [r4]
 2320 0060 5B4B     		ldr	r3, .L238
 2321 0062 9A42     		cmp	r2, r3
 2322 0064 50D0     		beq	.L232
 2323 0066 4FF04022 		mov	r2, #1073758208
 2324              	.L215:
 703:Drivers/STM32F4xx_HAL_Driver/Src/stm32f4xx_hal_i2s_ex.c **** 
 2325              		.loc 1 703 7 is_stmt 0 discriminator 4 view .LVU740
 2326 006a 5368     		ldr	r3, [r2, #4]
 2327 006c 23F06003 		bic	r3, r3, #96
 2328 0070 5360     		str	r3, [r2, #4]
 706:Drivers/STM32F4xx_HAL_Driver/Src/stm32f4xx_hal_i2s_ex.c **** 
 2329              		.loc 1 706 7 is_stmt 1 discriminator 4 view .LVU741
 2330 0072 2268     		ldr	r2, [r4]
 2331 0074 5368     		ldr	r3, [r2, #4]
 2332 0076 23F0A003 		bic	r3, r3, #160
 2333 007a 5360     		str	r3, [r2, #4]
 709:Drivers/STM32F4xx_HAL_Driver/Src/stm32f4xx_hal_i2s_ex.c **** 
 2334              		.loc 1 709 7 discriminator 4 view .LVU742
 2335              	.LBB10:
 709:Drivers/STM32F4xx_HAL_Driver/Src/stm32f4xx_hal_i2s_ex.c **** 
 2336              		.loc 1 709 7 discriminator 4 view .LVU743
 2337 007c 0023     		movs	r3, #0
 2338 007e 0093     		str	r3, [sp]
 709:Drivers/STM32F4xx_HAL_Driver/Src/stm32f4xx_hal_i2s_ex.c **** 
 2339              		.loc 1 709 7 discriminator 4 view .LVU744
 2340 0080 2368     		ldr	r3, [r4]
 2341 0082 DA68     		ldr	r2, [r3, #12]
 2342 0084 0092     		str	r2, [sp]
 709:Drivers/STM32F4xx_HAL_Driver/Src/stm32f4xx_hal_i2s_ex.c **** 
 2343              		.loc 1 709 7 discriminator 4 view .LVU745
 2344 0086 9B68     		ldr	r3, [r3, #8]
 2345 0088 0093     		str	r3, [sp]
 709:Drivers/STM32F4xx_HAL_Driver/Src/stm32f4xx_hal_i2s_ex.c **** 
 2346              		.loc 1 709 7 discriminator 4 view .LVU746
ARM GAS  C:\Users\ridel\AppData\Local\Temp\ccOCejYh.s 			page 74


 2347 008a 009B     		ldr	r3, [sp]
 2348              	.LBE10:
 709:Drivers/STM32F4xx_HAL_Driver/Src/stm32f4xx_hal_i2s_ex.c **** 
 2349              		.loc 1 709 7 discriminator 4 view .LVU747
 712:Drivers/STM32F4xx_HAL_Driver/Src/stm32f4xx_hal_i2s_ex.c **** 
 2350              		.loc 1 712 7 discriminator 4 view .LVU748
 712:Drivers/STM32F4xx_HAL_Driver/Src/stm32f4xx_hal_i2s_ex.c **** 
 2351              		.loc 1 712 19 is_stmt 0 discriminator 4 view .LVU749
 2352 008c 0123     		movs	r3, #1
 2353 008e 84F84130 		strb	r3, [r4, #65]
 715:Drivers/STM32F4xx_HAL_Driver/Src/stm32f4xx_hal_i2s_ex.c ****       /* Call user error callback */
 2354              		.loc 1 715 7 is_stmt 1 discriminator 4 view .LVU750
 2355 0092 636C     		ldr	r3, [r4, #68]
 2356 0094 43F00203 		orr	r3, r3, #2
 2357 0098 6364     		str	r3, [r4, #68]
 720:Drivers/STM32F4xx_HAL_Driver/Src/stm32f4xx_hal_i2s_ex.c **** #endif /* USE_HAL_I2S_REGISTER_CALLBACKS */
 2358              		.loc 1 720 7 discriminator 4 view .LVU751
 2359 009a 2046     		mov	r0, r4
 2360 009c FFF7FEFF 		bl	HAL_I2S_ErrorCallback
 2361              	.LVL114:
 2362              	.L214:
 725:Drivers/STM32F4xx_HAL_Driver/Src/stm32f4xx_hal_i2s_ex.c ****     {
 2363              		.loc 1 725 5 view .LVU752
 725:Drivers/STM32F4xx_HAL_Driver/Src/stm32f4xx_hal_i2s_ex.c ****     {
 2364              		.loc 1 725 17 is_stmt 0 view .LVU753
 2365 00a0 059B     		ldr	r3, [sp, #20]
 725:Drivers/STM32F4xx_HAL_Driver/Src/stm32f4xx_hal_i2s_ex.c ****     {
 2366              		.loc 1 725 8 view .LVU754
 2367 00a2 13F0080F 		tst	r3, #8
 2368 00a6 22D0     		beq	.L208
 725:Drivers/STM32F4xx_HAL_Driver/Src/stm32f4xx_hal_i2s_ex.c ****     {
 2369              		.loc 1 725 62 discriminator 1 view .LVU755
 2370 00a8 039B     		ldr	r3, [sp, #12]
 725:Drivers/STM32F4xx_HAL_Driver/Src/stm32f4xx_hal_i2s_ex.c ****     {
 2371              		.loc 1 725 50 discriminator 1 view .LVU756
 2372 00aa 13F0200F 		tst	r3, #32
 2373 00ae 1ED0     		beq	.L208
 728:Drivers/STM32F4xx_HAL_Driver/Src/stm32f4xx_hal_i2s_ex.c **** 
 2374              		.loc 1 728 7 is_stmt 1 view .LVU757
 2375 00b0 2268     		ldr	r2, [r4]
 2376 00b2 5368     		ldr	r3, [r2, #4]
 2377 00b4 23F0A003 		bic	r3, r3, #160
 2378 00b8 5360     		str	r3, [r2, #4]
 731:Drivers/STM32F4xx_HAL_Driver/Src/stm32f4xx_hal_i2s_ex.c **** 
 2379              		.loc 1 731 7 view .LVU758
 2380 00ba 2268     		ldr	r2, [r4]
 2381 00bc 444B     		ldr	r3, .L238
 2382 00be 9A42     		cmp	r2, r3
 2383 00c0 24D0     		beq	.L233
 2384 00c2 4FF04022 		mov	r2, #1073758208
 2385              	.L217:
 731:Drivers/STM32F4xx_HAL_Driver/Src/stm32f4xx_hal_i2s_ex.c **** 
 2386              		.loc 1 731 7 is_stmt 0 discriminator 4 view .LVU759
 2387 00c6 5368     		ldr	r3, [r2, #4]
 2388 00c8 23F06003 		bic	r3, r3, #96
 2389 00cc 5360     		str	r3, [r2, #4]
 734:Drivers/STM32F4xx_HAL_Driver/Src/stm32f4xx_hal_i2s_ex.c **** 
ARM GAS  C:\Users\ridel\AppData\Local\Temp\ccOCejYh.s 			page 75


 2390              		.loc 1 734 7 is_stmt 1 discriminator 4 view .LVU760
 2391              	.LBB11:
 734:Drivers/STM32F4xx_HAL_Driver/Src/stm32f4xx_hal_i2s_ex.c **** 
 2392              		.loc 1 734 7 discriminator 4 view .LVU761
 2393 00ce 0023     		movs	r3, #0
 2394 00d0 0193     		str	r3, [sp, #4]
 734:Drivers/STM32F4xx_HAL_Driver/Src/stm32f4xx_hal_i2s_ex.c **** 
 2395              		.loc 1 734 7 discriminator 4 view .LVU762
 2396 00d2 2368     		ldr	r3, [r4]
 2397 00d4 9B68     		ldr	r3, [r3, #8]
 2398 00d6 0193     		str	r3, [sp, #4]
 734:Drivers/STM32F4xx_HAL_Driver/Src/stm32f4xx_hal_i2s_ex.c **** 
 2399              		.loc 1 734 7 discriminator 4 view .LVU763
 2400 00d8 019B     		ldr	r3, [sp, #4]
 2401              	.LBE11:
 734:Drivers/STM32F4xx_HAL_Driver/Src/stm32f4xx_hal_i2s_ex.c **** 
 2402              		.loc 1 734 7 discriminator 4 view .LVU764
 737:Drivers/STM32F4xx_HAL_Driver/Src/stm32f4xx_hal_i2s_ex.c **** 
 2403              		.loc 1 737 7 discriminator 4 view .LVU765
 737:Drivers/STM32F4xx_HAL_Driver/Src/stm32f4xx_hal_i2s_ex.c **** 
 2404              		.loc 1 737 19 is_stmt 0 discriminator 4 view .LVU766
 2405 00da 0123     		movs	r3, #1
 2406 00dc 84F84130 		strb	r3, [r4, #65]
 740:Drivers/STM32F4xx_HAL_Driver/Src/stm32f4xx_hal_i2s_ex.c ****       /* Call user error callback */
 2407              		.loc 1 740 7 is_stmt 1 discriminator 4 view .LVU767
 2408 00e0 636C     		ldr	r3, [r4, #68]
 2409 00e2 43F00403 		orr	r3, r3, #4
 2410 00e6 6364     		str	r3, [r4, #68]
 745:Drivers/STM32F4xx_HAL_Driver/Src/stm32f4xx_hal_i2s_ex.c **** #endif /* USE_HAL_I2S_REGISTER_CALLBACKS */
 2411              		.loc 1 745 7 discriminator 4 view .LVU768
 2412 00e8 2046     		mov	r0, r4
 2413 00ea FFF7FEFF 		bl	HAL_I2S_ErrorCallback
 2414              	.LVL115:
 2415              	.L208:
 812:Drivers/STM32F4xx_HAL_Driver/Src/stm32f4xx_hal_i2s_ex.c **** 
 2416              		.loc 1 812 1 is_stmt 0 view .LVU769
 2417 00ee 06B0     		add	sp, sp, #24
 2418              	.LCFI18:
 2419              		.cfi_remember_state
 2420              		.cfi_def_cfa_offset 8
 2421              		@ sp needed
 2422 00f0 10BD     		pop	{r4, pc}
 2423              	.LVL116:
 2424              	.L229:
 2425              	.LCFI19:
 2426              		.cfi_restore_state
 676:Drivers/STM32F4xx_HAL_Driver/Src/stm32f4xx_hal_i2s_ex.c ****   __IO uint32_t i2scr2    = hi2s->Instance->CR2;
 2427              		.loc 1 676 29 view .LVU770
 2428 00f2 A2F58062 		sub	r2, r2, #1024
 2429 00f6 8EE7     		b	.L209
 2430              	.L230:
 688:Drivers/STM32F4xx_HAL_Driver/Src/stm32f4xx_hal_i2s_ex.c ****     }
 2431              		.loc 1 688 7 is_stmt 1 view .LVU771
 2432 00f8 2046     		mov	r0, r4
 2433              	.LVL117:
 688:Drivers/STM32F4xx_HAL_Driver/Src/stm32f4xx_hal_i2s_ex.c ****     }
 2434              		.loc 1 688 7 is_stmt 0 view .LVU772
ARM GAS  C:\Users\ridel\AppData\Local\Temp\ccOCejYh.s 			page 76


 2435 00fa FFF7FEFF 		bl	I2SEx_TxISR_I2S
 2436              	.LVL118:
 2437 00fe 9EE7     		b	.L212
 2438              	.L231:
 696:Drivers/STM32F4xx_HAL_Driver/Src/stm32f4xx_hal_i2s_ex.c ****     }
 2439              		.loc 1 696 7 is_stmt 1 view .LVU773
 2440 0100 2046     		mov	r0, r4
 2441 0102 FFF7FEFF 		bl	I2SEx_RxISR_I2SExt
 2442              	.LVL119:
 2443 0106 A2E7     		b	.L213
 2444              	.L232:
 703:Drivers/STM32F4xx_HAL_Driver/Src/stm32f4xx_hal_i2s_ex.c **** 
 2445              		.loc 1 703 7 is_stmt 0 view .LVU774
 2446 0108 324A     		ldr	r2, .L238+4
 2447 010a AEE7     		b	.L215
 2448              	.L233:
 731:Drivers/STM32F4xx_HAL_Driver/Src/stm32f4xx_hal_i2s_ex.c **** 
 2449              		.loc 1 731 7 view .LVU775
 2450 010c 314A     		ldr	r2, .L238+4
 2451 010e DAE7     		b	.L217
 2452              	.LVL120:
 2453              	.L211:
 753:Drivers/STM32F4xx_HAL_Driver/Src/stm32f4xx_hal_i2s_ex.c ****     {
 2454              		.loc 1 753 5 is_stmt 1 view .LVU776
 753:Drivers/STM32F4xx_HAL_Driver/Src/stm32f4xx_hal_i2s_ex.c ****     {
 2455              		.loc 1 753 20 is_stmt 0 view .LVU777
 2456 0110 049B     		ldr	r3, [sp, #16]
 753:Drivers/STM32F4xx_HAL_Driver/Src/stm32f4xx_hal_i2s_ex.c ****     {
 2457              		.loc 1 753 8 view .LVU778
 2458 0112 13F0020F 		tst	r3, #2
 2459 0116 03D0     		beq	.L218
 753:Drivers/STM32F4xx_HAL_Driver/Src/stm32f4xx_hal_i2s_ex.c ****     {
 2460              		.loc 1 753 68 discriminator 1 view .LVU779
 2461 0118 029B     		ldr	r3, [sp, #8]
 753:Drivers/STM32F4xx_HAL_Driver/Src/stm32f4xx_hal_i2s_ex.c ****     {
 2462              		.loc 1 753 53 discriminator 1 view .LVU780
 2463 011a 13F0800F 		tst	r3, #128
 2464 011e 4AD1     		bne	.L234
 2465              	.LVL121:
 2466              	.L218:
 761:Drivers/STM32F4xx_HAL_Driver/Src/stm32f4xx_hal_i2s_ex.c ****     {
 2467              		.loc 1 761 5 is_stmt 1 view .LVU781
 761:Drivers/STM32F4xx_HAL_Driver/Src/stm32f4xx_hal_i2s_ex.c ****     {
 2468              		.loc 1 761 17 is_stmt 0 view .LVU782
 2469 0120 059B     		ldr	r3, [sp, #20]
 761:Drivers/STM32F4xx_HAL_Driver/Src/stm32f4xx_hal_i2s_ex.c ****     {
 2470              		.loc 1 761 8 view .LVU783
 2471 0122 13F0010F 		tst	r3, #1
 2472 0126 03D0     		beq	.L219
 761:Drivers/STM32F4xx_HAL_Driver/Src/stm32f4xx_hal_i2s_ex.c ****     {
 2473              		.loc 1 761 64 discriminator 1 view .LVU784
 2474 0128 039B     		ldr	r3, [sp, #12]
 761:Drivers/STM32F4xx_HAL_Driver/Src/stm32f4xx_hal_i2s_ex.c ****     {
 2475              		.loc 1 761 52 discriminator 1 view .LVU785
 2476 012a 13F0400F 		tst	r3, #64
 2477 012e 46D1     		bne	.L235
 2478              	.L219:
ARM GAS  C:\Users\ridel\AppData\Local\Temp\ccOCejYh.s 			page 77


 769:Drivers/STM32F4xx_HAL_Driver/Src/stm32f4xx_hal_i2s_ex.c ****     {
 2479              		.loc 1 769 5 is_stmt 1 view .LVU786
 769:Drivers/STM32F4xx_HAL_Driver/Src/stm32f4xx_hal_i2s_ex.c ****     {
 2480              		.loc 1 769 17 is_stmt 0 view .LVU787
 2481 0130 059B     		ldr	r3, [sp, #20]
 769:Drivers/STM32F4xx_HAL_Driver/Src/stm32f4xx_hal_i2s_ex.c ****     {
 2482              		.loc 1 769 8 view .LVU788
 2483 0132 13F0400F 		tst	r3, #64
 2484 0136 1CD0     		beq	.L220
 769:Drivers/STM32F4xx_HAL_Driver/Src/stm32f4xx_hal_i2s_ex.c ****     {
 2485              		.loc 1 769 62 discriminator 1 view .LVU789
 2486 0138 039B     		ldr	r3, [sp, #12]
 769:Drivers/STM32F4xx_HAL_Driver/Src/stm32f4xx_hal_i2s_ex.c ****     {
 2487              		.loc 1 769 50 discriminator 1 view .LVU790
 2488 013a 13F0200F 		tst	r3, #32
 2489 013e 18D0     		beq	.L220
 772:Drivers/STM32F4xx_HAL_Driver/Src/stm32f4xx_hal_i2s_ex.c **** 
 2490              		.loc 1 772 7 is_stmt 1 view .LVU791
 2491 0140 2268     		ldr	r2, [r4]
 2492 0142 5368     		ldr	r3, [r2, #4]
 2493 0144 23F06003 		bic	r3, r3, #96
 2494 0148 5360     		str	r3, [r2, #4]
 775:Drivers/STM32F4xx_HAL_Driver/Src/stm32f4xx_hal_i2s_ex.c **** 
 2495              		.loc 1 775 7 view .LVU792
 2496 014a 2268     		ldr	r2, [r4]
 2497 014c 204B     		ldr	r3, .L238
 2498 014e 9A42     		cmp	r2, r3
 2499 0150 39D0     		beq	.L236
 2500 0152 4FF04022 		mov	r2, #1073758208
 2501              	.L221:
 775:Drivers/STM32F4xx_HAL_Driver/Src/stm32f4xx_hal_i2s_ex.c **** 
 2502              		.loc 1 775 7 is_stmt 0 discriminator 4 view .LVU793
 2503 0156 5368     		ldr	r3, [r2, #4]
 2504 0158 23F0A003 		bic	r3, r3, #160
 2505 015c 5360     		str	r3, [r2, #4]
 778:Drivers/STM32F4xx_HAL_Driver/Src/stm32f4xx_hal_i2s_ex.c **** 
 2506              		.loc 1 778 7 is_stmt 1 discriminator 4 view .LVU794
 778:Drivers/STM32F4xx_HAL_Driver/Src/stm32f4xx_hal_i2s_ex.c **** 
 2507              		.loc 1 778 19 is_stmt 0 discriminator 4 view .LVU795
 2508 015e 0123     		movs	r3, #1
 2509 0160 84F84130 		strb	r3, [r4, #65]
 781:Drivers/STM32F4xx_HAL_Driver/Src/stm32f4xx_hal_i2s_ex.c ****       /* Call user error callback */
 2510              		.loc 1 781 7 is_stmt 1 discriminator 4 view .LVU796
 2511 0164 636C     		ldr	r3, [r4, #68]
 2512 0166 43F00203 		orr	r3, r3, #2
 2513 016a 6364     		str	r3, [r4, #68]
 786:Drivers/STM32F4xx_HAL_Driver/Src/stm32f4xx_hal_i2s_ex.c **** #endif /* USE_HAL_I2S_REGISTER_CALLBACKS */
 2514              		.loc 1 786 7 discriminator 4 view .LVU797
 2515 016c 2046     		mov	r0, r4
 2516 016e FFF7FEFF 		bl	HAL_I2S_ErrorCallback
 2517              	.LVL122:
 2518              	.L220:
 791:Drivers/STM32F4xx_HAL_Driver/Src/stm32f4xx_hal_i2s_ex.c ****     {
 2519              		.loc 1 791 5 view .LVU798
 791:Drivers/STM32F4xx_HAL_Driver/Src/stm32f4xx_hal_i2s_ex.c ****     {
 2520              		.loc 1 791 20 is_stmt 0 view .LVU799
 2521 0172 049B     		ldr	r3, [sp, #16]
ARM GAS  C:\Users\ridel\AppData\Local\Temp\ccOCejYh.s 			page 78


 791:Drivers/STM32F4xx_HAL_Driver/Src/stm32f4xx_hal_i2s_ex.c ****     {
 2522              		.loc 1 791 8 view .LVU800
 2523 0174 13F0080F 		tst	r3, #8
 2524 0178 B9D0     		beq	.L208
 791:Drivers/STM32F4xx_HAL_Driver/Src/stm32f4xx_hal_i2s_ex.c ****     {
 2525              		.loc 1 791 68 discriminator 1 view .LVU801
 2526 017a 029B     		ldr	r3, [sp, #8]
 791:Drivers/STM32F4xx_HAL_Driver/Src/stm32f4xx_hal_i2s_ex.c ****     {
 2527              		.loc 1 791 53 discriminator 1 view .LVU802
 2528 017c 13F0200F 		tst	r3, #32
 2529 0180 B5D0     		beq	.L208
 794:Drivers/STM32F4xx_HAL_Driver/Src/stm32f4xx_hal_i2s_ex.c **** 
 2530              		.loc 1 794 7 is_stmt 1 view .LVU803
 2531 0182 2268     		ldr	r2, [r4]
 2532 0184 124B     		ldr	r3, .L238
 2533 0186 9A42     		cmp	r2, r3
 2534 0188 1FD0     		beq	.L237
 2535 018a 4FF04022 		mov	r2, #1073758208
 2536              	.L222:
 794:Drivers/STM32F4xx_HAL_Driver/Src/stm32f4xx_hal_i2s_ex.c **** 
 2537              		.loc 1 794 7 is_stmt 0 discriminator 4 view .LVU804
 2538 018e 5368     		ldr	r3, [r2, #4]
 2539 0190 23F0A003 		bic	r3, r3, #160
 2540 0194 5360     		str	r3, [r2, #4]
 797:Drivers/STM32F4xx_HAL_Driver/Src/stm32f4xx_hal_i2s_ex.c **** 
 2541              		.loc 1 797 7 is_stmt 1 discriminator 4 view .LVU805
 2542 0196 2268     		ldr	r2, [r4]
 2543 0198 5368     		ldr	r3, [r2, #4]
 2544 019a 23F06003 		bic	r3, r3, #96
 2545 019e 5360     		str	r3, [r2, #4]
 800:Drivers/STM32F4xx_HAL_Driver/Src/stm32f4xx_hal_i2s_ex.c **** 
 2546              		.loc 1 800 7 discriminator 4 view .LVU806
 800:Drivers/STM32F4xx_HAL_Driver/Src/stm32f4xx_hal_i2s_ex.c **** 
 2547              		.loc 1 800 19 is_stmt 0 discriminator 4 view .LVU807
 2548 01a0 0123     		movs	r3, #1
 2549 01a2 84F84130 		strb	r3, [r4, #65]
 803:Drivers/STM32F4xx_HAL_Driver/Src/stm32f4xx_hal_i2s_ex.c ****       /* Call user error callback */
 2550              		.loc 1 803 7 is_stmt 1 discriminator 4 view .LVU808
 2551 01a6 636C     		ldr	r3, [r4, #68]
 2552 01a8 43F00403 		orr	r3, r3, #4
 2553 01ac 6364     		str	r3, [r4, #68]
 808:Drivers/STM32F4xx_HAL_Driver/Src/stm32f4xx_hal_i2s_ex.c **** #endif /* USE_HAL_I2S_REGISTER_CALLBACKS */
 2554              		.loc 1 808 7 discriminator 4 view .LVU809
 2555 01ae 2046     		mov	r0, r4
 2556 01b0 FFF7FEFF 		bl	HAL_I2S_ErrorCallback
 2557              	.LVL123:
 812:Drivers/STM32F4xx_HAL_Driver/Src/stm32f4xx_hal_i2s_ex.c **** 
 2558              		.loc 1 812 1 is_stmt 0 discriminator 4 view .LVU810
 2559 01b4 9BE7     		b	.L208
 2560              	.LVL124:
 2561              	.L234:
 757:Drivers/STM32F4xx_HAL_Driver/Src/stm32f4xx_hal_i2s_ex.c ****     }
 2562              		.loc 1 757 7 is_stmt 1 view .LVU811
 2563 01b6 2046     		mov	r0, r4
 2564              	.LVL125:
 757:Drivers/STM32F4xx_HAL_Driver/Src/stm32f4xx_hal_i2s_ex.c ****     }
 2565              		.loc 1 757 7 is_stmt 0 view .LVU812
ARM GAS  C:\Users\ridel\AppData\Local\Temp\ccOCejYh.s 			page 79


 2566 01b8 FFF7FEFF 		bl	I2SEx_TxISR_I2SExt
 2567              	.LVL126:
 2568 01bc B0E7     		b	.L218
 2569              	.L235:
 765:Drivers/STM32F4xx_HAL_Driver/Src/stm32f4xx_hal_i2s_ex.c ****     }
 2570              		.loc 1 765 7 is_stmt 1 view .LVU813
 2571 01be 2046     		mov	r0, r4
 2572 01c0 FFF7FEFF 		bl	I2SEx_RxISR_I2S
 2573              	.LVL127:
 2574 01c4 B4E7     		b	.L219
 2575              	.L236:
 775:Drivers/STM32F4xx_HAL_Driver/Src/stm32f4xx_hal_i2s_ex.c **** 
 2576              		.loc 1 775 7 is_stmt 0 view .LVU814
 2577 01c6 034A     		ldr	r2, .L238+4
 2578 01c8 C5E7     		b	.L221
 2579              	.L237:
 794:Drivers/STM32F4xx_HAL_Driver/Src/stm32f4xx_hal_i2s_ex.c **** 
 2580              		.loc 1 794 7 view .LVU815
 2581 01ca 024A     		ldr	r2, .L238+4
 2582 01cc DFE7     		b	.L222
 2583              	.L239:
 2584 01ce 00BF     		.align	2
 2585              	.L238:
 2586 01d0 00380040 		.word	1073756160
 2587 01d4 00340040 		.word	1073755136
 2588              		.cfi_endproc
 2589              	.LFE137:
 2591              		.text
 2592              	.Letext0:
 2593              		.file 2 "c:\\dev\\tools\\gcc-arm-none-eabi-10.3-2021.10\\arm-none-eabi\\include\\machine\\_default
 2594              		.file 3 "c:\\dev\\tools\\gcc-arm-none-eabi-10.3-2021.10\\arm-none-eabi\\include\\sys\\_stdint.h"
 2595              		.file 4 "Drivers/CMSIS/Device/ST/STM32F4xx/Include/stm32f407xx.h"
 2596              		.file 5 "Drivers/CMSIS/Device/ST/STM32F4xx/Include/stm32f4xx.h"
 2597              		.file 6 "Drivers/STM32F4xx_HAL_Driver/Inc/stm32f4xx_hal_def.h"
 2598              		.file 7 "Drivers/STM32F4xx_HAL_Driver/Inc/stm32f4xx_hal_dma.h"
 2599              		.file 8 "Drivers/STM32F4xx_HAL_Driver/Inc/stm32f4xx_hal_i2s.h"
 2600              		.file 9 "Drivers/STM32F4xx_HAL_Driver/Inc/stm32f4xx_hal.h"
ARM GAS  C:\Users\ridel\AppData\Local\Temp\ccOCejYh.s 			page 80


DEFINED SYMBOLS
                            *ABS*:00000000 stm32f4xx_hal_i2s_ex.c
C:\Users\ridel\AppData\Local\Temp\ccOCejYh.s:20     .text.I2SEx_FullDuplexWaitFlagStateUntilTimeout:00000000 $t
C:\Users\ridel\AppData\Local\Temp\ccOCejYh.s:25     .text.I2SEx_FullDuplexWaitFlagStateUntilTimeout:00000000 I2SEx_FullDuplexWaitFlagStateUntilTimeout
C:\Users\ridel\AppData\Local\Temp\ccOCejYh.s:182    .text.I2SEx_FullDuplexWaitFlagStateUntilTimeout:000000a8 $d
C:\Users\ridel\AppData\Local\Temp\ccOCejYh.s:187    .text.I2SEx_TxRxDMAError:00000000 $t
C:\Users\ridel\AppData\Local\Temp\ccOCejYh.s:192    .text.I2SEx_TxRxDMAError:00000000 I2SEx_TxRxDMAError
C:\Users\ridel\AppData\Local\Temp\ccOCejYh.s:253    .text.I2SEx_TxRxDMAError:00000040 $d
C:\Users\ridel\AppData\Local\Temp\ccOCejYh.s:259    .text.HAL_I2SEx_TransmitReceive:00000000 $t
C:\Users\ridel\AppData\Local\Temp\ccOCejYh.s:265    .text.HAL_I2SEx_TransmitReceive:00000000 HAL_I2SEx_TransmitReceive
C:\Users\ridel\AppData\Local\Temp\ccOCejYh.s:883    .text.HAL_I2SEx_TransmitReceive:000002f0 $d
C:\Users\ridel\AppData\Local\Temp\ccOCejYh.s:888    .text.HAL_I2SEx_TransmitReceive:000002f8 $t
C:\Users\ridel\AppData\Local\Temp\ccOCejYh.s:984    .text.HAL_I2SEx_TransmitReceive_IT:00000000 $t
C:\Users\ridel\AppData\Local\Temp\ccOCejYh.s:990    .text.HAL_I2SEx_TransmitReceive_IT:00000000 HAL_I2SEx_TransmitReceive_IT
C:\Users\ridel\AppData\Local\Temp\ccOCejYh.s:1283   .text.HAL_I2SEx_TransmitReceive_IT:00000194 $d
C:\Users\ridel\AppData\Local\Temp\ccOCejYh.s:1289   .text.HAL_I2SEx_TransmitReceive_DMA:00000000 $t
C:\Users\ridel\AppData\Local\Temp\ccOCejYh.s:1295   .text.HAL_I2SEx_TransmitReceive_DMA:00000000 HAL_I2SEx_TransmitReceive_DMA
C:\Users\ridel\AppData\Local\Temp\ccOCejYh.s:1681   .text.HAL_I2SEx_TransmitReceive_DMA:0000019c $d
C:\Users\ridel\AppData\Local\Temp\ccOCejYh.s:1716   .text.I2SEx_TxRxDMAHalfCplt:00000000 I2SEx_TxRxDMAHalfCplt
C:\Users\ridel\AppData\Local\Temp\ccOCejYh.s:1769   .text.I2SEx_TxRxDMACplt:00000000 I2SEx_TxRxDMACplt
C:\Users\ridel\AppData\Local\Temp\ccOCejYh.s:1690   .text.HAL_I2SEx_TxRxHalfCpltCallback:00000000 $t
C:\Users\ridel\AppData\Local\Temp\ccOCejYh.s:1696   .text.HAL_I2SEx_TxRxHalfCpltCallback:00000000 HAL_I2SEx_TxRxHalfCpltCallback
C:\Users\ridel\AppData\Local\Temp\ccOCejYh.s:1711   .text.I2SEx_TxRxDMAHalfCplt:00000000 $t
C:\Users\ridel\AppData\Local\Temp\ccOCejYh.s:1743   .text.HAL_I2SEx_TxRxCpltCallback:00000000 $t
C:\Users\ridel\AppData\Local\Temp\ccOCejYh.s:1749   .text.HAL_I2SEx_TxRxCpltCallback:00000000 HAL_I2SEx_TxRxCpltCallback
C:\Users\ridel\AppData\Local\Temp\ccOCejYh.s:1764   .text.I2SEx_TxRxDMACplt:00000000 $t
C:\Users\ridel\AppData\Local\Temp\ccOCejYh.s:1871   .text.I2SEx_TxRxDMACplt:00000074 $d
C:\Users\ridel\AppData\Local\Temp\ccOCejYh.s:1877   .text.I2SEx_TxISR_I2S:00000000 $t
C:\Users\ridel\AppData\Local\Temp\ccOCejYh.s:1882   .text.I2SEx_TxISR_I2S:00000000 I2SEx_TxISR_I2S
C:\Users\ridel\AppData\Local\Temp\ccOCejYh.s:1951   .text.I2SEx_RxISR_I2SExt:00000000 $t
C:\Users\ridel\AppData\Local\Temp\ccOCejYh.s:1956   .text.I2SEx_RxISR_I2SExt:00000000 I2SEx_RxISR_I2SExt
C:\Users\ridel\AppData\Local\Temp\ccOCejYh.s:2043   .text.I2SEx_RxISR_I2SExt:0000005c $d
C:\Users\ridel\AppData\Local\Temp\ccOCejYh.s:2049   .text.I2SEx_TxISR_I2SExt:00000000 $t
C:\Users\ridel\AppData\Local\Temp\ccOCejYh.s:2054   .text.I2SEx_TxISR_I2SExt:00000000 I2SEx_TxISR_I2SExt
C:\Users\ridel\AppData\Local\Temp\ccOCejYh.s:2141   .text.I2SEx_TxISR_I2SExt:0000005c $d
C:\Users\ridel\AppData\Local\Temp\ccOCejYh.s:2147   .text.I2SEx_RxISR_I2S:00000000 $t
C:\Users\ridel\AppData\Local\Temp\ccOCejYh.s:2152   .text.I2SEx_RxISR_I2S:00000000 I2SEx_RxISR_I2S
C:\Users\ridel\AppData\Local\Temp\ccOCejYh.s:2221   .text.HAL_I2SEx_FullDuplex_IRQHandler:00000000 $t
C:\Users\ridel\AppData\Local\Temp\ccOCejYh.s:2227   .text.HAL_I2SEx_FullDuplex_IRQHandler:00000000 HAL_I2SEx_FullDuplex_IRQHandler
C:\Users\ridel\AppData\Local\Temp\ccOCejYh.s:2586   .text.HAL_I2SEx_FullDuplex_IRQHandler:000001d0 $d

UNDEFINED SYMBOLS
HAL_GetTick
HAL_I2S_ErrorCallback
HAL_DMA_Start_IT
