ARM GAS  C:\Users\ridel\AppData\Local\Temp\ccyWHXoc.s 			page 1


   1              		.cpu cortex-m4
   2              		.arch armv7e-m
   3              		.fpu fpv4-sp-d16
   4              		.eabi_attribute 27, 1
   5              		.eabi_attribute 28, 1
   6              		.eabi_attribute 20, 1
   7              		.eabi_attribute 21, 1
   8              		.eabi_attribute 23, 3
   9              		.eabi_attribute 24, 1
  10              		.eabi_attribute 25, 1
  11              		.eabi_attribute 26, 1
  12              		.eabi_attribute 30, 1
  13              		.eabi_attribute 34, 1
  14              		.eabi_attribute 18, 4
  15              		.file	"usbh_conf.c"
  16              		.text
  17              	.Ltext0:
  18              		.cfi_sections	.debug_frame
  19              		.section	.text.HAL_HCD_MspInit,"ax",%progbits
  20              		.align	1
  21              		.global	HAL_HCD_MspInit
  22              		.syntax unified
  23              		.thumb
  24              		.thumb_func
  26              	HAL_HCD_MspInit:
  27              	.LVL0:
  28              	.LFB137:
  29              		.file 1 "USB_HOST/Target/usbh_conf.c"
   1:USB_HOST/Target/usbh_conf.c **** /* USER CODE BEGIN Header */
   2:USB_HOST/Target/usbh_conf.c **** /**
   3:USB_HOST/Target/usbh_conf.c ****   ******************************************************************************
   4:USB_HOST/Target/usbh_conf.c ****   * @file           : Target/usbh_conf.c
   5:USB_HOST/Target/usbh_conf.c ****   * @version        : v1.0_Cube
   6:USB_HOST/Target/usbh_conf.c ****   * @brief          : This file implements the board support package for the USB host library
   7:USB_HOST/Target/usbh_conf.c ****   ******************************************************************************
   8:USB_HOST/Target/usbh_conf.c ****   * @attention
   9:USB_HOST/Target/usbh_conf.c ****   *
  10:USB_HOST/Target/usbh_conf.c ****   * Copyright (c) 2024 STMicroelectronics.
  11:USB_HOST/Target/usbh_conf.c ****   * All rights reserved.
  12:USB_HOST/Target/usbh_conf.c ****   *
  13:USB_HOST/Target/usbh_conf.c ****   * This software is licensed under terms that can be found in the LICENSE file
  14:USB_HOST/Target/usbh_conf.c ****   * in the root directory of this software component.
  15:USB_HOST/Target/usbh_conf.c ****   * If no LICENSE file comes with this software, it is provided AS-IS.
  16:USB_HOST/Target/usbh_conf.c ****   *
  17:USB_HOST/Target/usbh_conf.c ****   ******************************************************************************
  18:USB_HOST/Target/usbh_conf.c ****   */
  19:USB_HOST/Target/usbh_conf.c **** /* USER CODE END Header */
  20:USB_HOST/Target/usbh_conf.c **** 
  21:USB_HOST/Target/usbh_conf.c **** /* Includes ------------------------------------------------------------------*/
  22:USB_HOST/Target/usbh_conf.c **** #include "usbh_core.h"
  23:USB_HOST/Target/usbh_conf.c **** #include "usbh_platform.h"
  24:USB_HOST/Target/usbh_conf.c **** 
  25:USB_HOST/Target/usbh_conf.c **** /* USER CODE BEGIN Includes */
  26:USB_HOST/Target/usbh_conf.c **** 
  27:USB_HOST/Target/usbh_conf.c **** /* USER CODE END Includes */
  28:USB_HOST/Target/usbh_conf.c **** 
  29:USB_HOST/Target/usbh_conf.c **** /* Private typedef -----------------------------------------------------------*/
ARM GAS  C:\Users\ridel\AppData\Local\Temp\ccyWHXoc.s 			page 2


  30:USB_HOST/Target/usbh_conf.c **** /* Private define ------------------------------------------------------------*/
  31:USB_HOST/Target/usbh_conf.c **** /* Private macro -------------------------------------------------------------*/
  32:USB_HOST/Target/usbh_conf.c **** 
  33:USB_HOST/Target/usbh_conf.c **** /* USER CODE BEGIN PV */
  34:USB_HOST/Target/usbh_conf.c **** /* Private variables ---------------------------------------------------------*/
  35:USB_HOST/Target/usbh_conf.c **** 
  36:USB_HOST/Target/usbh_conf.c **** /* USER CODE END PV */
  37:USB_HOST/Target/usbh_conf.c **** 
  38:USB_HOST/Target/usbh_conf.c **** HCD_HandleTypeDef hhcd_USB_OTG_FS;
  39:USB_HOST/Target/usbh_conf.c **** void Error_Handler(void);
  40:USB_HOST/Target/usbh_conf.c **** 
  41:USB_HOST/Target/usbh_conf.c **** /* USER CODE BEGIN 0 */
  42:USB_HOST/Target/usbh_conf.c **** 
  43:USB_HOST/Target/usbh_conf.c **** /* USER CODE END 0 */
  44:USB_HOST/Target/usbh_conf.c **** 
  45:USB_HOST/Target/usbh_conf.c **** /* USER CODE BEGIN PFP */
  46:USB_HOST/Target/usbh_conf.c **** /* Private function prototypes -----------------------------------------------*/
  47:USB_HOST/Target/usbh_conf.c **** USBH_StatusTypeDef USBH_Get_USB_Status(HAL_StatusTypeDef hal_status);
  48:USB_HOST/Target/usbh_conf.c **** 
  49:USB_HOST/Target/usbh_conf.c **** /* USER CODE END PFP */
  50:USB_HOST/Target/usbh_conf.c **** 
  51:USB_HOST/Target/usbh_conf.c **** /* Private functions ---------------------------------------------------------*/
  52:USB_HOST/Target/usbh_conf.c **** 
  53:USB_HOST/Target/usbh_conf.c **** /* USER CODE BEGIN 1 */
  54:USB_HOST/Target/usbh_conf.c **** 
  55:USB_HOST/Target/usbh_conf.c **** /* USER CODE END 1 */
  56:USB_HOST/Target/usbh_conf.c **** 
  57:USB_HOST/Target/usbh_conf.c **** /*******************************************************************************
  58:USB_HOST/Target/usbh_conf.c ****                        LL Driver Callbacks (HCD -> USB Host Library)
  59:USB_HOST/Target/usbh_conf.c **** *******************************************************************************/
  60:USB_HOST/Target/usbh_conf.c **** /* MSP Init */
  61:USB_HOST/Target/usbh_conf.c **** 
  62:USB_HOST/Target/usbh_conf.c **** void HAL_HCD_MspInit(HCD_HandleTypeDef* hcdHandle)
  63:USB_HOST/Target/usbh_conf.c **** {
  30              		.loc 1 63 1 view -0
  31              		.cfi_startproc
  32              		@ args = 0, pretend = 0, frame = 32
  33              		@ frame_needed = 0, uses_anonymous_args = 0
  34              		.loc 1 63 1 is_stmt 0 view .LVU1
  35 0000 70B5     		push	{r4, r5, r6, lr}
  36              	.LCFI0:
  37              		.cfi_def_cfa_offset 16
  38              		.cfi_offset 4, -16
  39              		.cfi_offset 5, -12
  40              		.cfi_offset 6, -8
  41              		.cfi_offset 14, -4
  42 0002 88B0     		sub	sp, sp, #32
  43              	.LCFI1:
  44              		.cfi_def_cfa_offset 48
  64:USB_HOST/Target/usbh_conf.c ****   GPIO_InitTypeDef GPIO_InitStruct = {0};
  45              		.loc 1 64 3 is_stmt 1 view .LVU2
  46              		.loc 1 64 20 is_stmt 0 view .LVU3
  47 0004 0023     		movs	r3, #0
  48 0006 0393     		str	r3, [sp, #12]
  49 0008 0493     		str	r3, [sp, #16]
  50 000a 0593     		str	r3, [sp, #20]
  51 000c 0693     		str	r3, [sp, #24]
ARM GAS  C:\Users\ridel\AppData\Local\Temp\ccyWHXoc.s 			page 3


  52 000e 0793     		str	r3, [sp, #28]
  65:USB_HOST/Target/usbh_conf.c ****   if(hcdHandle->Instance==USB_OTG_FS)
  53              		.loc 1 65 3 is_stmt 1 view .LVU4
  54              		.loc 1 65 15 is_stmt 0 view .LVU5
  55 0010 0368     		ldr	r3, [r0]
  56              		.loc 1 65 5 view .LVU6
  57 0012 B3F1A04F 		cmp	r3, #1342177280
  58 0016 01D0     		beq	.L4
  59              	.LVL1:
  60              	.L1:
  66:USB_HOST/Target/usbh_conf.c ****   {
  67:USB_HOST/Target/usbh_conf.c ****   /* USER CODE BEGIN USB_OTG_FS_MspInit 0 */
  68:USB_HOST/Target/usbh_conf.c **** 
  69:USB_HOST/Target/usbh_conf.c ****   /* USER CODE END USB_OTG_FS_MspInit 0 */
  70:USB_HOST/Target/usbh_conf.c **** 
  71:USB_HOST/Target/usbh_conf.c ****     __HAL_RCC_GPIOA_CLK_ENABLE();
  72:USB_HOST/Target/usbh_conf.c ****     /**USB_OTG_FS GPIO Configuration
  73:USB_HOST/Target/usbh_conf.c ****     PA9     ------> USB_OTG_FS_VBUS
  74:USB_HOST/Target/usbh_conf.c ****     PA10     ------> USB_OTG_FS_ID
  75:USB_HOST/Target/usbh_conf.c ****     PA11     ------> USB_OTG_FS_DM
  76:USB_HOST/Target/usbh_conf.c ****     PA12     ------> USB_OTG_FS_DP
  77:USB_HOST/Target/usbh_conf.c ****     */
  78:USB_HOST/Target/usbh_conf.c ****     GPIO_InitStruct.Pin = VBUS_FS_Pin;
  79:USB_HOST/Target/usbh_conf.c ****     GPIO_InitStruct.Mode = GPIO_MODE_INPUT;
  80:USB_HOST/Target/usbh_conf.c ****     GPIO_InitStruct.Pull = GPIO_NOPULL;
  81:USB_HOST/Target/usbh_conf.c ****     HAL_GPIO_Init(VBUS_FS_GPIO_Port, &GPIO_InitStruct);
  82:USB_HOST/Target/usbh_conf.c **** 
  83:USB_HOST/Target/usbh_conf.c ****     GPIO_InitStruct.Pin = OTG_FS_ID_Pin|OTG_FS_DM_Pin|OTG_FS_DP_Pin;
  84:USB_HOST/Target/usbh_conf.c ****     GPIO_InitStruct.Mode = GPIO_MODE_AF_PP;
  85:USB_HOST/Target/usbh_conf.c ****     GPIO_InitStruct.Pull = GPIO_NOPULL;
  86:USB_HOST/Target/usbh_conf.c ****     GPIO_InitStruct.Speed = GPIO_SPEED_FREQ_LOW;
  87:USB_HOST/Target/usbh_conf.c ****     GPIO_InitStruct.Alternate = GPIO_AF10_OTG_FS;
  88:USB_HOST/Target/usbh_conf.c ****     HAL_GPIO_Init(GPIOA, &GPIO_InitStruct);
  89:USB_HOST/Target/usbh_conf.c **** 
  90:USB_HOST/Target/usbh_conf.c ****     /* Peripheral clock enable */
  91:USB_HOST/Target/usbh_conf.c ****     __HAL_RCC_USB_OTG_FS_CLK_ENABLE();
  92:USB_HOST/Target/usbh_conf.c **** 
  93:USB_HOST/Target/usbh_conf.c ****     /* Peripheral interrupt init */
  94:USB_HOST/Target/usbh_conf.c ****     HAL_NVIC_SetPriority(OTG_FS_IRQn, 0, 0);
  95:USB_HOST/Target/usbh_conf.c ****     HAL_NVIC_EnableIRQ(OTG_FS_IRQn);
  96:USB_HOST/Target/usbh_conf.c ****   /* USER CODE BEGIN USB_OTG_FS_MspInit 1 */
  97:USB_HOST/Target/usbh_conf.c **** 
  98:USB_HOST/Target/usbh_conf.c ****   /* USER CODE END USB_OTG_FS_MspInit 1 */
  99:USB_HOST/Target/usbh_conf.c ****   }
 100:USB_HOST/Target/usbh_conf.c **** }
  61              		.loc 1 100 1 view .LVU7
  62 0018 08B0     		add	sp, sp, #32
  63              	.LCFI2:
  64              		.cfi_remember_state
  65              		.cfi_def_cfa_offset 16
  66              		@ sp needed
  67 001a 70BD     		pop	{r4, r5, r6, pc}
  68              	.LVL2:
  69              	.L4:
  70              	.LCFI3:
  71              		.cfi_restore_state
  71:USB_HOST/Target/usbh_conf.c ****     /**USB_OTG_FS GPIO Configuration
ARM GAS  C:\Users\ridel\AppData\Local\Temp\ccyWHXoc.s 			page 4


  72              		.loc 1 71 5 is_stmt 1 view .LVU8
  73              	.LBB2:
  71:USB_HOST/Target/usbh_conf.c ****     /**USB_OTG_FS GPIO Configuration
  74              		.loc 1 71 5 view .LVU9
  75 001c 0025     		movs	r5, #0
  76 001e 0195     		str	r5, [sp, #4]
  71:USB_HOST/Target/usbh_conf.c ****     /**USB_OTG_FS GPIO Configuration
  77              		.loc 1 71 5 view .LVU10
  78 0020 1A4C     		ldr	r4, .L5
  79 0022 236B     		ldr	r3, [r4, #48]
  80 0024 43F00103 		orr	r3, r3, #1
  81 0028 2363     		str	r3, [r4, #48]
  71:USB_HOST/Target/usbh_conf.c ****     /**USB_OTG_FS GPIO Configuration
  82              		.loc 1 71 5 view .LVU11
  83 002a 236B     		ldr	r3, [r4, #48]
  84 002c 03F00103 		and	r3, r3, #1
  85 0030 0193     		str	r3, [sp, #4]
  71:USB_HOST/Target/usbh_conf.c ****     /**USB_OTG_FS GPIO Configuration
  86              		.loc 1 71 5 view .LVU12
  87 0032 019B     		ldr	r3, [sp, #4]
  88              	.LBE2:
  71:USB_HOST/Target/usbh_conf.c ****     /**USB_OTG_FS GPIO Configuration
  89              		.loc 1 71 5 view .LVU13
  78:USB_HOST/Target/usbh_conf.c ****     GPIO_InitStruct.Mode = GPIO_MODE_INPUT;
  90              		.loc 1 78 5 view .LVU14
  78:USB_HOST/Target/usbh_conf.c ****     GPIO_InitStruct.Mode = GPIO_MODE_INPUT;
  91              		.loc 1 78 25 is_stmt 0 view .LVU15
  92 0034 4FF40073 		mov	r3, #512
  93 0038 0393     		str	r3, [sp, #12]
  79:USB_HOST/Target/usbh_conf.c ****     GPIO_InitStruct.Pull = GPIO_NOPULL;
  94              		.loc 1 79 5 is_stmt 1 view .LVU16
  80:USB_HOST/Target/usbh_conf.c ****     HAL_GPIO_Init(VBUS_FS_GPIO_Port, &GPIO_InitStruct);
  95              		.loc 1 80 5 view .LVU17
  81:USB_HOST/Target/usbh_conf.c **** 
  96              		.loc 1 81 5 view .LVU18
  97 003a 154E     		ldr	r6, .L5+4
  98 003c 03A9     		add	r1, sp, #12
  99 003e 3046     		mov	r0, r6
 100              	.LVL3:
  81:USB_HOST/Target/usbh_conf.c **** 
 101              		.loc 1 81 5 is_stmt 0 view .LVU19
 102 0040 FFF7FEFF 		bl	HAL_GPIO_Init
 103              	.LVL4:
  83:USB_HOST/Target/usbh_conf.c ****     GPIO_InitStruct.Mode = GPIO_MODE_AF_PP;
 104              		.loc 1 83 5 is_stmt 1 view .LVU20
  83:USB_HOST/Target/usbh_conf.c ****     GPIO_InitStruct.Mode = GPIO_MODE_AF_PP;
 105              		.loc 1 83 25 is_stmt 0 view .LVU21
 106 0044 4FF4E053 		mov	r3, #7168
 107 0048 0393     		str	r3, [sp, #12]
  84:USB_HOST/Target/usbh_conf.c ****     GPIO_InitStruct.Pull = GPIO_NOPULL;
 108              		.loc 1 84 5 is_stmt 1 view .LVU22
  84:USB_HOST/Target/usbh_conf.c ****     GPIO_InitStruct.Pull = GPIO_NOPULL;
 109              		.loc 1 84 26 is_stmt 0 view .LVU23
 110 004a 0223     		movs	r3, #2
 111 004c 0493     		str	r3, [sp, #16]
  85:USB_HOST/Target/usbh_conf.c ****     GPIO_InitStruct.Speed = GPIO_SPEED_FREQ_LOW;
 112              		.loc 1 85 5 is_stmt 1 view .LVU24
ARM GAS  C:\Users\ridel\AppData\Local\Temp\ccyWHXoc.s 			page 5


  85:USB_HOST/Target/usbh_conf.c ****     GPIO_InitStruct.Speed = GPIO_SPEED_FREQ_LOW;
 113              		.loc 1 85 26 is_stmt 0 view .LVU25
 114 004e 0595     		str	r5, [sp, #20]
  86:USB_HOST/Target/usbh_conf.c ****     GPIO_InitStruct.Alternate = GPIO_AF10_OTG_FS;
 115              		.loc 1 86 5 is_stmt 1 view .LVU26
  86:USB_HOST/Target/usbh_conf.c ****     GPIO_InitStruct.Alternate = GPIO_AF10_OTG_FS;
 116              		.loc 1 86 27 is_stmt 0 view .LVU27
 117 0050 0695     		str	r5, [sp, #24]
  87:USB_HOST/Target/usbh_conf.c ****     HAL_GPIO_Init(GPIOA, &GPIO_InitStruct);
 118              		.loc 1 87 5 is_stmt 1 view .LVU28
  87:USB_HOST/Target/usbh_conf.c ****     HAL_GPIO_Init(GPIOA, &GPIO_InitStruct);
 119              		.loc 1 87 31 is_stmt 0 view .LVU29
 120 0052 0A23     		movs	r3, #10
 121 0054 0793     		str	r3, [sp, #28]
  88:USB_HOST/Target/usbh_conf.c **** 
 122              		.loc 1 88 5 is_stmt 1 view .LVU30
 123 0056 03A9     		add	r1, sp, #12
 124 0058 3046     		mov	r0, r6
 125 005a FFF7FEFF 		bl	HAL_GPIO_Init
 126              	.LVL5:
  91:USB_HOST/Target/usbh_conf.c **** 
 127              		.loc 1 91 5 view .LVU31
  91:USB_HOST/Target/usbh_conf.c **** 
 128              		.loc 1 91 5 view .LVU32
 129 005e 636B     		ldr	r3, [r4, #52]
 130 0060 43F08003 		orr	r3, r3, #128
 131 0064 6363     		str	r3, [r4, #52]
  91:USB_HOST/Target/usbh_conf.c **** 
 132              		.loc 1 91 5 view .LVU33
 133              	.LBB3:
  91:USB_HOST/Target/usbh_conf.c **** 
 134              		.loc 1 91 5 view .LVU34
 135 0066 0295     		str	r5, [sp, #8]
  91:USB_HOST/Target/usbh_conf.c **** 
 136              		.loc 1 91 5 view .LVU35
 137 0068 636C     		ldr	r3, [r4, #68]
 138 006a 43F48043 		orr	r3, r3, #16384
 139 006e 6364     		str	r3, [r4, #68]
  91:USB_HOST/Target/usbh_conf.c **** 
 140              		.loc 1 91 5 view .LVU36
 141 0070 636C     		ldr	r3, [r4, #68]
 142 0072 03F48043 		and	r3, r3, #16384
 143 0076 0293     		str	r3, [sp, #8]
  91:USB_HOST/Target/usbh_conf.c **** 
 144              		.loc 1 91 5 view .LVU37
 145 0078 029B     		ldr	r3, [sp, #8]
 146              	.LBE3:
  91:USB_HOST/Target/usbh_conf.c **** 
 147              		.loc 1 91 5 view .LVU38
  91:USB_HOST/Target/usbh_conf.c **** 
 148              		.loc 1 91 5 view .LVU39
  94:USB_HOST/Target/usbh_conf.c ****     HAL_NVIC_EnableIRQ(OTG_FS_IRQn);
 149              		.loc 1 94 5 view .LVU40
 150 007a 2A46     		mov	r2, r5
 151 007c 2946     		mov	r1, r5
 152 007e 4320     		movs	r0, #67
 153 0080 FFF7FEFF 		bl	HAL_NVIC_SetPriority
ARM GAS  C:\Users\ridel\AppData\Local\Temp\ccyWHXoc.s 			page 6


 154              	.LVL6:
  95:USB_HOST/Target/usbh_conf.c ****   /* USER CODE BEGIN USB_OTG_FS_MspInit 1 */
 155              		.loc 1 95 5 view .LVU41
 156 0084 4320     		movs	r0, #67
 157 0086 FFF7FEFF 		bl	HAL_NVIC_EnableIRQ
 158              	.LVL7:
 159              		.loc 1 100 1 is_stmt 0 view .LVU42
 160 008a C5E7     		b	.L1
 161              	.L6:
 162              		.align	2
 163              	.L5:
 164 008c 00380240 		.word	1073887232
 165 0090 00000240 		.word	1073872896
 166              		.cfi_endproc
 167              	.LFE137:
 169              		.section	.text.HAL_HCD_MspDeInit,"ax",%progbits
 170              		.align	1
 171              		.global	HAL_HCD_MspDeInit
 172              		.syntax unified
 173              		.thumb
 174              		.thumb_func
 176              	HAL_HCD_MspDeInit:
 177              	.LVL8:
 178              	.LFB138:
 101:USB_HOST/Target/usbh_conf.c **** 
 102:USB_HOST/Target/usbh_conf.c **** void HAL_HCD_MspDeInit(HCD_HandleTypeDef* hcdHandle)
 103:USB_HOST/Target/usbh_conf.c **** {
 179              		.loc 1 103 1 is_stmt 1 view -0
 180              		.cfi_startproc
 181              		@ args = 0, pretend = 0, frame = 0
 182              		@ frame_needed = 0, uses_anonymous_args = 0
 183              		.loc 1 103 1 is_stmt 0 view .LVU44
 184 0000 08B5     		push	{r3, lr}
 185              	.LCFI4:
 186              		.cfi_def_cfa_offset 8
 187              		.cfi_offset 3, -8
 188              		.cfi_offset 14, -4
 104:USB_HOST/Target/usbh_conf.c ****   if(hcdHandle->Instance==USB_OTG_FS)
 189              		.loc 1 104 3 is_stmt 1 view .LVU45
 190              		.loc 1 104 15 is_stmt 0 view .LVU46
 191 0002 0368     		ldr	r3, [r0]
 192              		.loc 1 104 5 view .LVU47
 193 0004 B3F1A04F 		cmp	r3, #1342177280
 194 0008 00D0     		beq	.L10
 195              	.LVL9:
 196              	.L7:
 105:USB_HOST/Target/usbh_conf.c ****   {
 106:USB_HOST/Target/usbh_conf.c ****   /* USER CODE BEGIN USB_OTG_FS_MspDeInit 0 */
 107:USB_HOST/Target/usbh_conf.c **** 
 108:USB_HOST/Target/usbh_conf.c ****   /* USER CODE END USB_OTG_FS_MspDeInit 0 */
 109:USB_HOST/Target/usbh_conf.c ****     /* Peripheral clock disable */
 110:USB_HOST/Target/usbh_conf.c ****     __HAL_RCC_USB_OTG_FS_CLK_DISABLE();
 111:USB_HOST/Target/usbh_conf.c **** 
 112:USB_HOST/Target/usbh_conf.c ****     /**USB_OTG_FS GPIO Configuration
 113:USB_HOST/Target/usbh_conf.c ****     PA9     ------> USB_OTG_FS_VBUS
 114:USB_HOST/Target/usbh_conf.c ****     PA10     ------> USB_OTG_FS_ID
 115:USB_HOST/Target/usbh_conf.c ****     PA11     ------> USB_OTG_FS_DM
ARM GAS  C:\Users\ridel\AppData\Local\Temp\ccyWHXoc.s 			page 7


 116:USB_HOST/Target/usbh_conf.c ****     PA12     ------> USB_OTG_FS_DP
 117:USB_HOST/Target/usbh_conf.c ****     */
 118:USB_HOST/Target/usbh_conf.c ****     HAL_GPIO_DeInit(GPIOA, VBUS_FS_Pin|OTG_FS_ID_Pin|OTG_FS_DM_Pin|OTG_FS_DP_Pin);
 119:USB_HOST/Target/usbh_conf.c **** 
 120:USB_HOST/Target/usbh_conf.c ****     /* Peripheral interrupt Deinit*/
 121:USB_HOST/Target/usbh_conf.c ****     HAL_NVIC_DisableIRQ(OTG_FS_IRQn);
 122:USB_HOST/Target/usbh_conf.c **** 
 123:USB_HOST/Target/usbh_conf.c ****   /* USER CODE BEGIN USB_OTG_FS_MspDeInit 1 */
 124:USB_HOST/Target/usbh_conf.c **** 
 125:USB_HOST/Target/usbh_conf.c ****   /* USER CODE END USB_OTG_FS_MspDeInit 1 */
 126:USB_HOST/Target/usbh_conf.c ****   }
 127:USB_HOST/Target/usbh_conf.c **** }
 197              		.loc 1 127 1 view .LVU48
 198 000a 08BD     		pop	{r3, pc}
 199              	.LVL10:
 200              	.L10:
 110:USB_HOST/Target/usbh_conf.c **** 
 201              		.loc 1 110 5 is_stmt 1 view .LVU49
 202 000c 064A     		ldr	r2, .L11
 203 000e 536B     		ldr	r3, [r2, #52]
 204 0010 23F08003 		bic	r3, r3, #128
 205 0014 5363     		str	r3, [r2, #52]
 118:USB_HOST/Target/usbh_conf.c **** 
 206              		.loc 1 118 5 view .LVU50
 207 0016 4FF4F051 		mov	r1, #7680
 208 001a 0448     		ldr	r0, .L11+4
 209              	.LVL11:
 118:USB_HOST/Target/usbh_conf.c **** 
 210              		.loc 1 118 5 is_stmt 0 view .LVU51
 211 001c FFF7FEFF 		bl	HAL_GPIO_DeInit
 212              	.LVL12:
 121:USB_HOST/Target/usbh_conf.c **** 
 213              		.loc 1 121 5 is_stmt 1 view .LVU52
 214 0020 4320     		movs	r0, #67
 215 0022 FFF7FEFF 		bl	HAL_NVIC_DisableIRQ
 216              	.LVL13:
 217              		.loc 1 127 1 is_stmt 0 view .LVU53
 218 0026 F0E7     		b	.L7
 219              	.L12:
 220              		.align	2
 221              	.L11:
 222 0028 00380240 		.word	1073887232
 223 002c 00000240 		.word	1073872896
 224              		.cfi_endproc
 225              	.LFE138:
 227              		.section	.text.HAL_HCD_SOF_Callback,"ax",%progbits
 228              		.align	1
 229              		.global	HAL_HCD_SOF_Callback
 230              		.syntax unified
 231              		.thumb
 232              		.thumb_func
 234              	HAL_HCD_SOF_Callback:
 235              	.LVL14:
 236              	.LFB139:
 128:USB_HOST/Target/usbh_conf.c **** 
 129:USB_HOST/Target/usbh_conf.c **** /**
 130:USB_HOST/Target/usbh_conf.c ****   * @brief  SOF callback.
ARM GAS  C:\Users\ridel\AppData\Local\Temp\ccyWHXoc.s 			page 8


 131:USB_HOST/Target/usbh_conf.c ****   * @param  hhcd: HCD handle
 132:USB_HOST/Target/usbh_conf.c ****   * @retval None
 133:USB_HOST/Target/usbh_conf.c ****   */
 134:USB_HOST/Target/usbh_conf.c **** void HAL_HCD_SOF_Callback(HCD_HandleTypeDef *hhcd)
 135:USB_HOST/Target/usbh_conf.c **** {
 237              		.loc 1 135 1 is_stmt 1 view -0
 238              		.cfi_startproc
 239              		@ args = 0, pretend = 0, frame = 0
 240              		@ frame_needed = 0, uses_anonymous_args = 0
 241              		.loc 1 135 1 is_stmt 0 view .LVU55
 242 0000 08B5     		push	{r3, lr}
 243              	.LCFI5:
 244              		.cfi_def_cfa_offset 8
 245              		.cfi_offset 3, -8
 246              		.cfi_offset 14, -4
 136:USB_HOST/Target/usbh_conf.c ****   USBH_LL_IncTimer(hhcd->pData);
 247              		.loc 1 136 3 is_stmt 1 view .LVU56
 248 0002 D0F8DC03 		ldr	r0, [r0, #988]
 249              	.LVL15:
 250              		.loc 1 136 3 is_stmt 0 view .LVU57
 251 0006 FFF7FEFF 		bl	USBH_LL_IncTimer
 252              	.LVL16:
 137:USB_HOST/Target/usbh_conf.c **** }
 253              		.loc 1 137 1 view .LVU58
 254 000a 08BD     		pop	{r3, pc}
 255              		.cfi_endproc
 256              	.LFE139:
 258              		.section	.text.HAL_HCD_Connect_Callback,"ax",%progbits
 259              		.align	1
 260              		.global	HAL_HCD_Connect_Callback
 261              		.syntax unified
 262              		.thumb
 263              		.thumb_func
 265              	HAL_HCD_Connect_Callback:
 266              	.LVL17:
 267              	.LFB140:
 138:USB_HOST/Target/usbh_conf.c **** 
 139:USB_HOST/Target/usbh_conf.c **** /**
 140:USB_HOST/Target/usbh_conf.c ****   * @brief  SOF callback.
 141:USB_HOST/Target/usbh_conf.c ****   * @param  hhcd: HCD handle
 142:USB_HOST/Target/usbh_conf.c ****   * @retval None
 143:USB_HOST/Target/usbh_conf.c ****   */
 144:USB_HOST/Target/usbh_conf.c **** void HAL_HCD_Connect_Callback(HCD_HandleTypeDef *hhcd)
 145:USB_HOST/Target/usbh_conf.c **** {
 268              		.loc 1 145 1 is_stmt 1 view -0
 269              		.cfi_startproc
 270              		@ args = 0, pretend = 0, frame = 0
 271              		@ frame_needed = 0, uses_anonymous_args = 0
 272              		.loc 1 145 1 is_stmt 0 view .LVU60
 273 0000 08B5     		push	{r3, lr}
 274              	.LCFI6:
 275              		.cfi_def_cfa_offset 8
 276              		.cfi_offset 3, -8
 277              		.cfi_offset 14, -4
 146:USB_HOST/Target/usbh_conf.c ****   USBH_LL_Connect(hhcd->pData);
 278              		.loc 1 146 3 is_stmt 1 view .LVU61
 279 0002 D0F8DC03 		ldr	r0, [r0, #988]
ARM GAS  C:\Users\ridel\AppData\Local\Temp\ccyWHXoc.s 			page 9


 280              	.LVL18:
 281              		.loc 1 146 3 is_stmt 0 view .LVU62
 282 0006 FFF7FEFF 		bl	USBH_LL_Connect
 283              	.LVL19:
 147:USB_HOST/Target/usbh_conf.c **** }
 284              		.loc 1 147 1 view .LVU63
 285 000a 08BD     		pop	{r3, pc}
 286              		.cfi_endproc
 287              	.LFE140:
 289              		.section	.text.HAL_HCD_Disconnect_Callback,"ax",%progbits
 290              		.align	1
 291              		.global	HAL_HCD_Disconnect_Callback
 292              		.syntax unified
 293              		.thumb
 294              		.thumb_func
 296              	HAL_HCD_Disconnect_Callback:
 297              	.LVL20:
 298              	.LFB141:
 148:USB_HOST/Target/usbh_conf.c **** 
 149:USB_HOST/Target/usbh_conf.c **** /**
 150:USB_HOST/Target/usbh_conf.c ****   * @brief  SOF callback.
 151:USB_HOST/Target/usbh_conf.c ****   * @param  hhcd: HCD handle
 152:USB_HOST/Target/usbh_conf.c ****   * @retval None
 153:USB_HOST/Target/usbh_conf.c ****   */
 154:USB_HOST/Target/usbh_conf.c **** void HAL_HCD_Disconnect_Callback(HCD_HandleTypeDef *hhcd)
 155:USB_HOST/Target/usbh_conf.c **** {
 299              		.loc 1 155 1 is_stmt 1 view -0
 300              		.cfi_startproc
 301              		@ args = 0, pretend = 0, frame = 0
 302              		@ frame_needed = 0, uses_anonymous_args = 0
 303              		.loc 1 155 1 is_stmt 0 view .LVU65
 304 0000 08B5     		push	{r3, lr}
 305              	.LCFI7:
 306              		.cfi_def_cfa_offset 8
 307              		.cfi_offset 3, -8
 308              		.cfi_offset 14, -4
 156:USB_HOST/Target/usbh_conf.c ****   USBH_LL_Disconnect(hhcd->pData);
 309              		.loc 1 156 3 is_stmt 1 view .LVU66
 310 0002 D0F8DC03 		ldr	r0, [r0, #988]
 311              	.LVL21:
 312              		.loc 1 156 3 is_stmt 0 view .LVU67
 313 0006 FFF7FEFF 		bl	USBH_LL_Disconnect
 314              	.LVL22:
 157:USB_HOST/Target/usbh_conf.c **** }
 315              		.loc 1 157 1 view .LVU68
 316 000a 08BD     		pop	{r3, pc}
 317              		.cfi_endproc
 318              	.LFE141:
 320              		.section	.text.HAL_HCD_HC_NotifyURBChange_Callback,"ax",%progbits
 321              		.align	1
 322              		.global	HAL_HCD_HC_NotifyURBChange_Callback
 323              		.syntax unified
 324              		.thumb
 325              		.thumb_func
 327              	HAL_HCD_HC_NotifyURBChange_Callback:
 328              	.LVL23:
 329              	.LFB142:
ARM GAS  C:\Users\ridel\AppData\Local\Temp\ccyWHXoc.s 			page 10


 158:USB_HOST/Target/usbh_conf.c **** 
 159:USB_HOST/Target/usbh_conf.c **** /**
 160:USB_HOST/Target/usbh_conf.c ****   * @brief  Notify URB state change callback.
 161:USB_HOST/Target/usbh_conf.c ****   * @param  hhcd: HCD handle
 162:USB_HOST/Target/usbh_conf.c ****   * @param  chnum: channel number
 163:USB_HOST/Target/usbh_conf.c ****   * @param  urb_state: state
 164:USB_HOST/Target/usbh_conf.c ****   * @retval None
 165:USB_HOST/Target/usbh_conf.c ****   */
 166:USB_HOST/Target/usbh_conf.c **** void HAL_HCD_HC_NotifyURBChange_Callback(HCD_HandleTypeDef *hhcd, uint8_t chnum, HCD_URBStateTypeDe
 167:USB_HOST/Target/usbh_conf.c **** {
 330              		.loc 1 167 1 is_stmt 1 view -0
 331              		.cfi_startproc
 332              		@ args = 0, pretend = 0, frame = 0
 333              		@ frame_needed = 0, uses_anonymous_args = 0
 334              		@ link register save eliminated.
 168:USB_HOST/Target/usbh_conf.c ****   /* To be used with OS to sync URB state with the global state machine */
 169:USB_HOST/Target/usbh_conf.c **** #if (USBH_USE_OS == 1)
 170:USB_HOST/Target/usbh_conf.c ****   USBH_LL_NotifyURBChange(hhcd->pData);
 171:USB_HOST/Target/usbh_conf.c **** #endif
 172:USB_HOST/Target/usbh_conf.c **** }
 335              		.loc 1 172 1 view .LVU70
 336 0000 7047     		bx	lr
 337              		.cfi_endproc
 338              	.LFE142:
 340              		.section	.text.HAL_HCD_PortEnabled_Callback,"ax",%progbits
 341              		.align	1
 342              		.global	HAL_HCD_PortEnabled_Callback
 343              		.syntax unified
 344              		.thumb
 345              		.thumb_func
 347              	HAL_HCD_PortEnabled_Callback:
 348              	.LVL24:
 349              	.LFB143:
 173:USB_HOST/Target/usbh_conf.c **** /**
 174:USB_HOST/Target/usbh_conf.c **** * @brief  Port Port Enabled callback.
 175:USB_HOST/Target/usbh_conf.c ****   * @param  hhcd: HCD handle
 176:USB_HOST/Target/usbh_conf.c ****   * @retval None
 177:USB_HOST/Target/usbh_conf.c ****   */
 178:USB_HOST/Target/usbh_conf.c **** void HAL_HCD_PortEnabled_Callback(HCD_HandleTypeDef *hhcd)
 179:USB_HOST/Target/usbh_conf.c **** {
 350              		.loc 1 179 1 view -0
 351              		.cfi_startproc
 352              		@ args = 0, pretend = 0, frame = 0
 353              		@ frame_needed = 0, uses_anonymous_args = 0
 354              		.loc 1 179 1 is_stmt 0 view .LVU72
 355 0000 08B5     		push	{r3, lr}
 356              	.LCFI8:
 357              		.cfi_def_cfa_offset 8
 358              		.cfi_offset 3, -8
 359              		.cfi_offset 14, -4
 180:USB_HOST/Target/usbh_conf.c ****   USBH_LL_PortEnabled(hhcd->pData);
 360              		.loc 1 180 3 is_stmt 1 view .LVU73
 361 0002 D0F8DC03 		ldr	r0, [r0, #988]
 362              	.LVL25:
 363              		.loc 1 180 3 is_stmt 0 view .LVU74
 364 0006 FFF7FEFF 		bl	USBH_LL_PortEnabled
 365              	.LVL26:
ARM GAS  C:\Users\ridel\AppData\Local\Temp\ccyWHXoc.s 			page 11


 181:USB_HOST/Target/usbh_conf.c **** }
 366              		.loc 1 181 1 view .LVU75
 367 000a 08BD     		pop	{r3, pc}
 368              		.cfi_endproc
 369              	.LFE143:
 371              		.section	.text.HAL_HCD_PortDisabled_Callback,"ax",%progbits
 372              		.align	1
 373              		.global	HAL_HCD_PortDisabled_Callback
 374              		.syntax unified
 375              		.thumb
 376              		.thumb_func
 378              	HAL_HCD_PortDisabled_Callback:
 379              	.LVL27:
 380              	.LFB144:
 182:USB_HOST/Target/usbh_conf.c **** 
 183:USB_HOST/Target/usbh_conf.c **** /**
 184:USB_HOST/Target/usbh_conf.c ****   * @brief  Port Port Disabled callback.
 185:USB_HOST/Target/usbh_conf.c ****   * @param  hhcd: HCD handle
 186:USB_HOST/Target/usbh_conf.c ****   * @retval None
 187:USB_HOST/Target/usbh_conf.c ****   */
 188:USB_HOST/Target/usbh_conf.c **** void HAL_HCD_PortDisabled_Callback(HCD_HandleTypeDef *hhcd)
 189:USB_HOST/Target/usbh_conf.c **** {
 381              		.loc 1 189 1 is_stmt 1 view -0
 382              		.cfi_startproc
 383              		@ args = 0, pretend = 0, frame = 0
 384              		@ frame_needed = 0, uses_anonymous_args = 0
 385              		.loc 1 189 1 is_stmt 0 view .LVU77
 386 0000 08B5     		push	{r3, lr}
 387              	.LCFI9:
 388              		.cfi_def_cfa_offset 8
 389              		.cfi_offset 3, -8
 390              		.cfi_offset 14, -4
 190:USB_HOST/Target/usbh_conf.c ****   USBH_LL_PortDisabled(hhcd->pData);
 391              		.loc 1 190 3 is_stmt 1 view .LVU78
 392 0002 D0F8DC03 		ldr	r0, [r0, #988]
 393              	.LVL28:
 394              		.loc 1 190 3 is_stmt 0 view .LVU79
 395 0006 FFF7FEFF 		bl	USBH_LL_PortDisabled
 396              	.LVL29:
 191:USB_HOST/Target/usbh_conf.c **** }
 397              		.loc 1 191 1 view .LVU80
 398 000a 08BD     		pop	{r3, pc}
 399              		.cfi_endproc
 400              	.LFE144:
 402              		.section	.text.USBH_LL_Init,"ax",%progbits
 403              		.align	1
 404              		.global	USBH_LL_Init
 405              		.syntax unified
 406              		.thumb
 407              		.thumb_func
 409              	USBH_LL_Init:
 410              	.LVL30:
 411              	.LFB145:
 192:USB_HOST/Target/usbh_conf.c **** 
 193:USB_HOST/Target/usbh_conf.c **** /*******************************************************************************
 194:USB_HOST/Target/usbh_conf.c ****                        LL Driver Interface (USB Host Library --> HCD)
 195:USB_HOST/Target/usbh_conf.c **** *******************************************************************************/
ARM GAS  C:\Users\ridel\AppData\Local\Temp\ccyWHXoc.s 			page 12


 196:USB_HOST/Target/usbh_conf.c **** 
 197:USB_HOST/Target/usbh_conf.c **** /**
 198:USB_HOST/Target/usbh_conf.c ****   * @brief  Initialize the low level portion of the host driver.
 199:USB_HOST/Target/usbh_conf.c ****   * @param  phost: Host handle
 200:USB_HOST/Target/usbh_conf.c ****   * @retval USBH status
 201:USB_HOST/Target/usbh_conf.c ****   */
 202:USB_HOST/Target/usbh_conf.c **** USBH_StatusTypeDef USBH_LL_Init(USBH_HandleTypeDef *phost)
 203:USB_HOST/Target/usbh_conf.c **** {
 412              		.loc 1 203 1 is_stmt 1 view -0
 413              		.cfi_startproc
 414              		@ args = 0, pretend = 0, frame = 0
 415              		@ frame_needed = 0, uses_anonymous_args = 0
 204:USB_HOST/Target/usbh_conf.c ****   /* Init USB_IP */
 205:USB_HOST/Target/usbh_conf.c ****   if (phost->id == HOST_FS) {
 416              		.loc 1 205 3 view .LVU82
 417              		.loc 1 205 12 is_stmt 0 view .LVU83
 418 0000 90F8CC33 		ldrb	r3, [r0, #972]	@ zero_extendqisi2
 419              		.loc 1 205 6 view .LVU84
 420 0004 012B     		cmp	r3, #1
 421 0006 01D0     		beq	.L31
 206:USB_HOST/Target/usbh_conf.c ****   /* Link the driver to the stack. */
 207:USB_HOST/Target/usbh_conf.c ****   hhcd_USB_OTG_FS.pData = phost;
 208:USB_HOST/Target/usbh_conf.c ****   phost->pData = &hhcd_USB_OTG_FS;
 209:USB_HOST/Target/usbh_conf.c **** 
 210:USB_HOST/Target/usbh_conf.c ****   hhcd_USB_OTG_FS.Instance = USB_OTG_FS;
 211:USB_HOST/Target/usbh_conf.c ****   hhcd_USB_OTG_FS.Init.Host_channels = 8;
 212:USB_HOST/Target/usbh_conf.c ****   hhcd_USB_OTG_FS.Init.speed = HCD_SPEED_FULL;
 213:USB_HOST/Target/usbh_conf.c ****   hhcd_USB_OTG_FS.Init.dma_enable = DISABLE;
 214:USB_HOST/Target/usbh_conf.c ****   hhcd_USB_OTG_FS.Init.phy_itface = HCD_PHY_EMBEDDED;
 215:USB_HOST/Target/usbh_conf.c ****   hhcd_USB_OTG_FS.Init.Sof_enable = DISABLE;
 216:USB_HOST/Target/usbh_conf.c ****   if (HAL_HCD_Init(&hhcd_USB_OTG_FS) != HAL_OK)
 217:USB_HOST/Target/usbh_conf.c ****   {
 218:USB_HOST/Target/usbh_conf.c ****     Error_Handler( );
 219:USB_HOST/Target/usbh_conf.c ****   }
 220:USB_HOST/Target/usbh_conf.c **** 
 221:USB_HOST/Target/usbh_conf.c ****   USBH_LL_SetTimer(phost, HAL_HCD_GetCurrentFrame(&hhcd_USB_OTG_FS));
 222:USB_HOST/Target/usbh_conf.c ****   }
 223:USB_HOST/Target/usbh_conf.c ****   return USBH_OK;
 422              		.loc 1 223 3 is_stmt 1 view .LVU85
 224:USB_HOST/Target/usbh_conf.c **** }
 423              		.loc 1 224 1 is_stmt 0 view .LVU86
 424 0008 0020     		movs	r0, #0
 425              	.LVL31:
 426              		.loc 1 224 1 view .LVU87
 427 000a 7047     		bx	lr
 428              	.LVL32:
 429              	.L31:
 203:USB_HOST/Target/usbh_conf.c ****   /* Init USB_IP */
 430              		.loc 1 203 1 view .LVU88
 431 000c 10B5     		push	{r4, lr}
 432              	.LCFI10:
 433              		.cfi_def_cfa_offset 8
 434              		.cfi_offset 4, -8
 435              		.cfi_offset 14, -4
 436 000e 0446     		mov	r4, r0
 207:USB_HOST/Target/usbh_conf.c ****   phost->pData = &hhcd_USB_OTG_FS;
 437              		.loc 1 207 3 is_stmt 1 view .LVU89
ARM GAS  C:\Users\ridel\AppData\Local\Temp\ccyWHXoc.s 			page 13


 207:USB_HOST/Target/usbh_conf.c ****   phost->pData = &hhcd_USB_OTG_FS;
 438              		.loc 1 207 25 is_stmt 0 view .LVU90
 439 0010 0F48     		ldr	r0, .L33
 440              	.LVL33:
 207:USB_HOST/Target/usbh_conf.c ****   phost->pData = &hhcd_USB_OTG_FS;
 441              		.loc 1 207 25 view .LVU91
 442 0012 C0F8DC43 		str	r4, [r0, #988]
 208:USB_HOST/Target/usbh_conf.c **** 
 443              		.loc 1 208 3 is_stmt 1 view .LVU92
 208:USB_HOST/Target/usbh_conf.c **** 
 444              		.loc 1 208 16 is_stmt 0 view .LVU93
 445 0016 C4F8D003 		str	r0, [r4, #976]
 210:USB_HOST/Target/usbh_conf.c ****   hhcd_USB_OTG_FS.Init.Host_channels = 8;
 446              		.loc 1 210 3 is_stmt 1 view .LVU94
 210:USB_HOST/Target/usbh_conf.c ****   hhcd_USB_OTG_FS.Init.Host_channels = 8;
 447              		.loc 1 210 28 is_stmt 0 view .LVU95
 448 001a 4FF0A043 		mov	r3, #1342177280
 449 001e 0360     		str	r3, [r0]
 211:USB_HOST/Target/usbh_conf.c ****   hhcd_USB_OTG_FS.Init.speed = HCD_SPEED_FULL;
 450              		.loc 1 211 3 is_stmt 1 view .LVU96
 211:USB_HOST/Target/usbh_conf.c ****   hhcd_USB_OTG_FS.Init.speed = HCD_SPEED_FULL;
 451              		.loc 1 211 38 is_stmt 0 view .LVU97
 452 0020 0823     		movs	r3, #8
 453 0022 4371     		strb	r3, [r0, #5]
 212:USB_HOST/Target/usbh_conf.c ****   hhcd_USB_OTG_FS.Init.dma_enable = DISABLE;
 454              		.loc 1 212 3 is_stmt 1 view .LVU98
 212:USB_HOST/Target/usbh_conf.c ****   hhcd_USB_OTG_FS.Init.dma_enable = DISABLE;
 455              		.loc 1 212 30 is_stmt 0 view .LVU99
 456 0024 0123     		movs	r3, #1
 457 0026 C371     		strb	r3, [r0, #7]
 213:USB_HOST/Target/usbh_conf.c ****   hhcd_USB_OTG_FS.Init.phy_itface = HCD_PHY_EMBEDDED;
 458              		.loc 1 213 3 is_stmt 1 view .LVU100
 213:USB_HOST/Target/usbh_conf.c ****   hhcd_USB_OTG_FS.Init.phy_itface = HCD_PHY_EMBEDDED;
 459              		.loc 1 213 35 is_stmt 0 view .LVU101
 460 0028 0023     		movs	r3, #0
 461 002a 8371     		strb	r3, [r0, #6]
 214:USB_HOST/Target/usbh_conf.c ****   hhcd_USB_OTG_FS.Init.Sof_enable = DISABLE;
 462              		.loc 1 214 3 is_stmt 1 view .LVU102
 214:USB_HOST/Target/usbh_conf.c ****   hhcd_USB_OTG_FS.Init.Sof_enable = DISABLE;
 463              		.loc 1 214 35 is_stmt 0 view .LVU103
 464 002c 0222     		movs	r2, #2
 465 002e 4272     		strb	r2, [r0, #9]
 215:USB_HOST/Target/usbh_conf.c ****   if (HAL_HCD_Init(&hhcd_USB_OTG_FS) != HAL_OK)
 466              		.loc 1 215 3 is_stmt 1 view .LVU104
 215:USB_HOST/Target/usbh_conf.c ****   if (HAL_HCD_Init(&hhcd_USB_OTG_FS) != HAL_OK)
 467              		.loc 1 215 35 is_stmt 0 view .LVU105
 468 0030 8372     		strb	r3, [r0, #10]
 216:USB_HOST/Target/usbh_conf.c ****   {
 469              		.loc 1 216 3 is_stmt 1 view .LVU106
 216:USB_HOST/Target/usbh_conf.c ****   {
 470              		.loc 1 216 7 is_stmt 0 view .LVU107
 471 0032 FFF7FEFF 		bl	HAL_HCD_Init
 472              	.LVL34:
 216:USB_HOST/Target/usbh_conf.c ****   {
 473              		.loc 1 216 6 view .LVU108
 474 0036 40B9     		cbnz	r0, .L32
 475              	.L26:
ARM GAS  C:\Users\ridel\AppData\Local\Temp\ccyWHXoc.s 			page 14


 221:USB_HOST/Target/usbh_conf.c ****   }
 476              		.loc 1 221 3 is_stmt 1 view .LVU109
 477 0038 0548     		ldr	r0, .L33
 478 003a FFF7FEFF 		bl	HAL_HCD_GetCurrentFrame
 479              	.LVL35:
 480 003e 0146     		mov	r1, r0
 481 0040 2046     		mov	r0, r4
 482 0042 FFF7FEFF 		bl	USBH_LL_SetTimer
 483              	.LVL36:
 223:USB_HOST/Target/usbh_conf.c **** }
 484              		.loc 1 223 3 view .LVU110
 485              		.loc 1 224 1 is_stmt 0 view .LVU111
 486 0046 0020     		movs	r0, #0
 487 0048 10BD     		pop	{r4, pc}
 488              	.LVL37:
 489              	.L32:
 218:USB_HOST/Target/usbh_conf.c ****   }
 490              		.loc 1 218 5 is_stmt 1 view .LVU112
 491 004a FFF7FEFF 		bl	Error_Handler
 492              	.LVL38:
 493 004e F3E7     		b	.L26
 494              	.L34:
 495              		.align	2
 496              	.L33:
 497 0050 00000000 		.word	.LANCHOR0
 498              		.cfi_endproc
 499              	.LFE145:
 501              		.section	.text.USBH_LL_GetSpeed,"ax",%progbits
 502              		.align	1
 503              		.global	USBH_LL_GetSpeed
 504              		.syntax unified
 505              		.thumb
 506              		.thumb_func
 508              	USBH_LL_GetSpeed:
 509              	.LVL39:
 510              	.LFB149:
 225:USB_HOST/Target/usbh_conf.c **** 
 226:USB_HOST/Target/usbh_conf.c **** /**
 227:USB_HOST/Target/usbh_conf.c ****   * @brief  De-Initialize the low level portion of the host driver.
 228:USB_HOST/Target/usbh_conf.c ****   * @param  phost: Host handle
 229:USB_HOST/Target/usbh_conf.c ****   * @retval USBH status
 230:USB_HOST/Target/usbh_conf.c ****   */
 231:USB_HOST/Target/usbh_conf.c **** USBH_StatusTypeDef USBH_LL_DeInit(USBH_HandleTypeDef *phost)
 232:USB_HOST/Target/usbh_conf.c **** {
 233:USB_HOST/Target/usbh_conf.c ****   HAL_StatusTypeDef hal_status = HAL_OK;
 234:USB_HOST/Target/usbh_conf.c ****   USBH_StatusTypeDef usb_status = USBH_OK;
 235:USB_HOST/Target/usbh_conf.c **** 
 236:USB_HOST/Target/usbh_conf.c ****   hal_status = HAL_HCD_DeInit(phost->pData);
 237:USB_HOST/Target/usbh_conf.c **** 
 238:USB_HOST/Target/usbh_conf.c ****   usb_status = USBH_Get_USB_Status(hal_status);
 239:USB_HOST/Target/usbh_conf.c **** 
 240:USB_HOST/Target/usbh_conf.c ****   return usb_status;
 241:USB_HOST/Target/usbh_conf.c **** }
 242:USB_HOST/Target/usbh_conf.c **** 
 243:USB_HOST/Target/usbh_conf.c **** /**
 244:USB_HOST/Target/usbh_conf.c ****   * @brief  Start the low level portion of the host driver.
 245:USB_HOST/Target/usbh_conf.c ****   * @param  phost: Host handle
ARM GAS  C:\Users\ridel\AppData\Local\Temp\ccyWHXoc.s 			page 15


 246:USB_HOST/Target/usbh_conf.c ****   * @retval USBH status
 247:USB_HOST/Target/usbh_conf.c ****   */
 248:USB_HOST/Target/usbh_conf.c **** USBH_StatusTypeDef USBH_LL_Start(USBH_HandleTypeDef *phost)
 249:USB_HOST/Target/usbh_conf.c **** {
 250:USB_HOST/Target/usbh_conf.c ****   HAL_StatusTypeDef hal_status = HAL_OK;
 251:USB_HOST/Target/usbh_conf.c ****   USBH_StatusTypeDef usb_status = USBH_OK;
 252:USB_HOST/Target/usbh_conf.c **** 
 253:USB_HOST/Target/usbh_conf.c ****   hal_status = HAL_HCD_Start(phost->pData);
 254:USB_HOST/Target/usbh_conf.c **** 
 255:USB_HOST/Target/usbh_conf.c ****   usb_status = USBH_Get_USB_Status(hal_status);
 256:USB_HOST/Target/usbh_conf.c **** 
 257:USB_HOST/Target/usbh_conf.c ****   return usb_status;
 258:USB_HOST/Target/usbh_conf.c **** }
 259:USB_HOST/Target/usbh_conf.c **** 
 260:USB_HOST/Target/usbh_conf.c **** /**
 261:USB_HOST/Target/usbh_conf.c ****   * @brief  Stop the low level portion of the host driver.
 262:USB_HOST/Target/usbh_conf.c ****   * @param  phost: Host handle
 263:USB_HOST/Target/usbh_conf.c ****   * @retval USBH status
 264:USB_HOST/Target/usbh_conf.c ****   */
 265:USB_HOST/Target/usbh_conf.c **** USBH_StatusTypeDef USBH_LL_Stop(USBH_HandleTypeDef *phost)
 266:USB_HOST/Target/usbh_conf.c **** {
 267:USB_HOST/Target/usbh_conf.c ****   HAL_StatusTypeDef hal_status = HAL_OK;
 268:USB_HOST/Target/usbh_conf.c ****   USBH_StatusTypeDef usb_status = USBH_OK;
 269:USB_HOST/Target/usbh_conf.c **** 
 270:USB_HOST/Target/usbh_conf.c ****   hal_status = HAL_HCD_Stop(phost->pData);
 271:USB_HOST/Target/usbh_conf.c **** 
 272:USB_HOST/Target/usbh_conf.c ****   usb_status = USBH_Get_USB_Status(hal_status);
 273:USB_HOST/Target/usbh_conf.c **** 
 274:USB_HOST/Target/usbh_conf.c ****   return usb_status;
 275:USB_HOST/Target/usbh_conf.c **** }
 276:USB_HOST/Target/usbh_conf.c **** 
 277:USB_HOST/Target/usbh_conf.c **** /**
 278:USB_HOST/Target/usbh_conf.c ****   * @brief  Return the USB host speed from the low level driver.
 279:USB_HOST/Target/usbh_conf.c ****   * @param  phost: Host handle
 280:USB_HOST/Target/usbh_conf.c ****   * @retval USBH speeds
 281:USB_HOST/Target/usbh_conf.c ****   */
 282:USB_HOST/Target/usbh_conf.c **** USBH_SpeedTypeDef USBH_LL_GetSpeed(USBH_HandleTypeDef *phost)
 283:USB_HOST/Target/usbh_conf.c **** {
 511              		.loc 1 283 1 view -0
 512              		.cfi_startproc
 513              		@ args = 0, pretend = 0, frame = 0
 514              		@ frame_needed = 0, uses_anonymous_args = 0
 515              		.loc 1 283 1 is_stmt 0 view .LVU114
 516 0000 08B5     		push	{r3, lr}
 517              	.LCFI11:
 518              		.cfi_def_cfa_offset 8
 519              		.cfi_offset 3, -8
 520              		.cfi_offset 14, -4
 284:USB_HOST/Target/usbh_conf.c ****   USBH_SpeedTypeDef speed = USBH_SPEED_FULL;
 521              		.loc 1 284 3 is_stmt 1 view .LVU115
 522              	.LVL40:
 285:USB_HOST/Target/usbh_conf.c **** 
 286:USB_HOST/Target/usbh_conf.c ****   switch (HAL_HCD_GetCurrentSpeed(phost->pData))
 523              		.loc 1 286 3 view .LVU116
 524              		.loc 1 286 11 is_stmt 0 view .LVU117
 525 0002 D0F8D003 		ldr	r0, [r0, #976]
 526              	.LVL41:
ARM GAS  C:\Users\ridel\AppData\Local\Temp\ccyWHXoc.s 			page 16


 527              		.loc 1 286 11 view .LVU118
 528 0006 FFF7FEFF 		bl	HAL_HCD_GetCurrentSpeed
 529              	.LVL42:
 530              		.loc 1 286 3 view .LVU119
 531 000a 0128     		cmp	r0, #1
 532 000c 04D0     		beq	.L37
 533 000e 0228     		cmp	r0, #2
 534 0010 04D0     		beq	.L38
 535 0012 00B1     		cbz	r0, .L36
 287:USB_HOST/Target/usbh_conf.c ****   {
 288:USB_HOST/Target/usbh_conf.c ****   case 0 :
 289:USB_HOST/Target/usbh_conf.c ****     speed = USBH_SPEED_HIGH;
 290:USB_HOST/Target/usbh_conf.c ****     break;
 291:USB_HOST/Target/usbh_conf.c **** 
 292:USB_HOST/Target/usbh_conf.c ****   case 1 :
 293:USB_HOST/Target/usbh_conf.c ****     speed = USBH_SPEED_FULL;
 294:USB_HOST/Target/usbh_conf.c ****     break;
 295:USB_HOST/Target/usbh_conf.c **** 
 296:USB_HOST/Target/usbh_conf.c ****   case 2 :
 297:USB_HOST/Target/usbh_conf.c ****     speed = USBH_SPEED_LOW;
 298:USB_HOST/Target/usbh_conf.c ****     break;
 299:USB_HOST/Target/usbh_conf.c **** 
 300:USB_HOST/Target/usbh_conf.c ****   default:
 301:USB_HOST/Target/usbh_conf.c ****    speed = USBH_SPEED_FULL;
 536              		.loc 1 301 10 view .LVU120
 537 0014 0120     		movs	r0, #1
 538              	.L36:
 539              	.LVL43:
 302:USB_HOST/Target/usbh_conf.c ****     break;
 303:USB_HOST/Target/usbh_conf.c ****   }
 304:USB_HOST/Target/usbh_conf.c ****   return  speed;
 540              		.loc 1 304 3 is_stmt 1 view .LVU121
 305:USB_HOST/Target/usbh_conf.c **** }
 541              		.loc 1 305 1 is_stmt 0 view .LVU122
 542 0016 08BD     		pop	{r3, pc}
 543              	.LVL44:
 544              	.L37:
 293:USB_HOST/Target/usbh_conf.c ****     break;
 545              		.loc 1 293 11 view .LVU123
 546 0018 0120     		movs	r0, #1
 547 001a FCE7     		b	.L36
 548              	.L38:
 297:USB_HOST/Target/usbh_conf.c ****     break;
 549              		.loc 1 297 11 view .LVU124
 550 001c 0220     		movs	r0, #2
 551 001e FAE7     		b	.L36
 552              		.cfi_endproc
 553              	.LFE149:
 555              		.section	.text.USBH_LL_GetLastXferSize,"ax",%progbits
 556              		.align	1
 557              		.global	USBH_LL_GetLastXferSize
 558              		.syntax unified
 559              		.thumb
 560              		.thumb_func
 562              	USBH_LL_GetLastXferSize:
 563              	.LVL45:
 564              	.LFB151:
ARM GAS  C:\Users\ridel\AppData\Local\Temp\ccyWHXoc.s 			page 17


 306:USB_HOST/Target/usbh_conf.c **** 
 307:USB_HOST/Target/usbh_conf.c **** /**
 308:USB_HOST/Target/usbh_conf.c ****   * @brief  Reset the Host port of the low level driver.
 309:USB_HOST/Target/usbh_conf.c ****   * @param  phost: Host handle
 310:USB_HOST/Target/usbh_conf.c ****   * @retval USBH status
 311:USB_HOST/Target/usbh_conf.c ****   */
 312:USB_HOST/Target/usbh_conf.c **** USBH_StatusTypeDef USBH_LL_ResetPort(USBH_HandleTypeDef *phost)
 313:USB_HOST/Target/usbh_conf.c **** {
 314:USB_HOST/Target/usbh_conf.c ****   HAL_StatusTypeDef hal_status = HAL_OK;
 315:USB_HOST/Target/usbh_conf.c ****   USBH_StatusTypeDef usb_status = USBH_OK;
 316:USB_HOST/Target/usbh_conf.c **** 
 317:USB_HOST/Target/usbh_conf.c ****   hal_status = HAL_HCD_ResetPort(phost->pData);
 318:USB_HOST/Target/usbh_conf.c **** 
 319:USB_HOST/Target/usbh_conf.c ****   usb_status = USBH_Get_USB_Status(hal_status);
 320:USB_HOST/Target/usbh_conf.c **** 
 321:USB_HOST/Target/usbh_conf.c ****   return usb_status;
 322:USB_HOST/Target/usbh_conf.c **** }
 323:USB_HOST/Target/usbh_conf.c **** 
 324:USB_HOST/Target/usbh_conf.c **** /**
 325:USB_HOST/Target/usbh_conf.c ****   * @brief  Return the last transferred packet size.
 326:USB_HOST/Target/usbh_conf.c ****   * @param  phost: Host handle
 327:USB_HOST/Target/usbh_conf.c ****   * @param  pipe: Pipe index
 328:USB_HOST/Target/usbh_conf.c ****   * @retval Packet size
 329:USB_HOST/Target/usbh_conf.c ****   */
 330:USB_HOST/Target/usbh_conf.c **** uint32_t USBH_LL_GetLastXferSize(USBH_HandleTypeDef *phost, uint8_t pipe)
 331:USB_HOST/Target/usbh_conf.c **** {
 565              		.loc 1 331 1 is_stmt 1 view -0
 566              		.cfi_startproc
 567              		@ args = 0, pretend = 0, frame = 0
 568              		@ frame_needed = 0, uses_anonymous_args = 0
 569              		.loc 1 331 1 is_stmt 0 view .LVU126
 570 0000 08B5     		push	{r3, lr}
 571              	.LCFI12:
 572              		.cfi_def_cfa_offset 8
 573              		.cfi_offset 3, -8
 574              		.cfi_offset 14, -4
 332:USB_HOST/Target/usbh_conf.c ****   return HAL_HCD_HC_GetXferCount(phost->pData, pipe);
 575              		.loc 1 332 3 is_stmt 1 view .LVU127
 576              		.loc 1 332 10 is_stmt 0 view .LVU128
 577 0002 D0F8D003 		ldr	r0, [r0, #976]
 578              	.LVL46:
 579              		.loc 1 332 10 view .LVU129
 580 0006 FFF7FEFF 		bl	HAL_HCD_HC_GetXferCount
 581              	.LVL47:
 333:USB_HOST/Target/usbh_conf.c **** }
 582              		.loc 1 333 1 view .LVU130
 583 000a 08BD     		pop	{r3, pc}
 584              		.cfi_endproc
 585              	.LFE151:
 587              		.section	.text.USBH_LL_GetURBState,"ax",%progbits
 588              		.align	1
 589              		.global	USBH_LL_GetURBState
 590              		.syntax unified
 591              		.thumb
 592              		.thumb_func
 594              	USBH_LL_GetURBState:
 595              	.LVL48:
ARM GAS  C:\Users\ridel\AppData\Local\Temp\ccyWHXoc.s 			page 18


 596              	.LFB155:
 334:USB_HOST/Target/usbh_conf.c **** 
 335:USB_HOST/Target/usbh_conf.c **** /**
 336:USB_HOST/Target/usbh_conf.c ****   * @brief  Open a pipe of the low level driver.
 337:USB_HOST/Target/usbh_conf.c ****   * @param  phost: Host handle
 338:USB_HOST/Target/usbh_conf.c ****   * @param  pipe_num: Pipe index
 339:USB_HOST/Target/usbh_conf.c ****   * @param  epnum: Endpoint number
 340:USB_HOST/Target/usbh_conf.c ****   * @param  dev_address: Device USB address
 341:USB_HOST/Target/usbh_conf.c ****   * @param  speed: Device Speed
 342:USB_HOST/Target/usbh_conf.c ****   * @param  ep_type: Endpoint type
 343:USB_HOST/Target/usbh_conf.c ****   * @param  mps: Endpoint max packet size
 344:USB_HOST/Target/usbh_conf.c ****   * @retval USBH status
 345:USB_HOST/Target/usbh_conf.c ****   */
 346:USB_HOST/Target/usbh_conf.c **** USBH_StatusTypeDef USBH_LL_OpenPipe(USBH_HandleTypeDef *phost, uint8_t pipe_num, uint8_t epnum,
 347:USB_HOST/Target/usbh_conf.c ****                                     uint8_t dev_address, uint8_t speed, uint8_t ep_type, uint16_t m
 348:USB_HOST/Target/usbh_conf.c **** {
 349:USB_HOST/Target/usbh_conf.c ****   HAL_StatusTypeDef hal_status = HAL_OK;
 350:USB_HOST/Target/usbh_conf.c ****   USBH_StatusTypeDef usb_status = USBH_OK;
 351:USB_HOST/Target/usbh_conf.c **** 
 352:USB_HOST/Target/usbh_conf.c ****   hal_status = HAL_HCD_HC_Init(phost->pData, pipe_num, epnum,
 353:USB_HOST/Target/usbh_conf.c ****                                dev_address, speed, ep_type, mps);
 354:USB_HOST/Target/usbh_conf.c **** 
 355:USB_HOST/Target/usbh_conf.c ****   usb_status = USBH_Get_USB_Status(hal_status);
 356:USB_HOST/Target/usbh_conf.c **** 
 357:USB_HOST/Target/usbh_conf.c ****   return usb_status;
 358:USB_HOST/Target/usbh_conf.c **** }
 359:USB_HOST/Target/usbh_conf.c **** 
 360:USB_HOST/Target/usbh_conf.c **** /**
 361:USB_HOST/Target/usbh_conf.c ****   * @brief  Close a pipe of the low level driver.
 362:USB_HOST/Target/usbh_conf.c ****   * @param  phost: Host handle
 363:USB_HOST/Target/usbh_conf.c ****   * @param  pipe: Pipe index
 364:USB_HOST/Target/usbh_conf.c ****   * @retval USBH status
 365:USB_HOST/Target/usbh_conf.c ****   */
 366:USB_HOST/Target/usbh_conf.c **** USBH_StatusTypeDef USBH_LL_ClosePipe(USBH_HandleTypeDef *phost, uint8_t pipe)
 367:USB_HOST/Target/usbh_conf.c **** {
 368:USB_HOST/Target/usbh_conf.c ****   HAL_StatusTypeDef hal_status = HAL_OK;
 369:USB_HOST/Target/usbh_conf.c ****   USBH_StatusTypeDef usb_status = USBH_OK;
 370:USB_HOST/Target/usbh_conf.c **** 
 371:USB_HOST/Target/usbh_conf.c ****   hal_status = HAL_HCD_HC_Halt(phost->pData, pipe);
 372:USB_HOST/Target/usbh_conf.c **** 
 373:USB_HOST/Target/usbh_conf.c ****   usb_status = USBH_Get_USB_Status(hal_status);
 374:USB_HOST/Target/usbh_conf.c **** 
 375:USB_HOST/Target/usbh_conf.c ****   return usb_status;
 376:USB_HOST/Target/usbh_conf.c **** }
 377:USB_HOST/Target/usbh_conf.c **** 
 378:USB_HOST/Target/usbh_conf.c **** /**
 379:USB_HOST/Target/usbh_conf.c ****   * @brief  Submit a new URB to the low level driver.
 380:USB_HOST/Target/usbh_conf.c ****   * @param  phost: Host handle
 381:USB_HOST/Target/usbh_conf.c ****   * @param  pipe: Pipe index
 382:USB_HOST/Target/usbh_conf.c ****   *         This parameter can be a value from 1 to 15
 383:USB_HOST/Target/usbh_conf.c ****   * @param  direction : Channel number
 384:USB_HOST/Target/usbh_conf.c ****   *          This parameter can be one of the these values:
 385:USB_HOST/Target/usbh_conf.c ****   *           0 : Output
 386:USB_HOST/Target/usbh_conf.c ****   *           1 : Input
 387:USB_HOST/Target/usbh_conf.c ****   * @param  ep_type : Endpoint Type
 388:USB_HOST/Target/usbh_conf.c ****   *          This parameter can be one of the these values:
 389:USB_HOST/Target/usbh_conf.c ****   *            @arg EP_TYPE_CTRL: Control type
ARM GAS  C:\Users\ridel\AppData\Local\Temp\ccyWHXoc.s 			page 19


 390:USB_HOST/Target/usbh_conf.c ****   *            @arg EP_TYPE_ISOC: Isochrounous type
 391:USB_HOST/Target/usbh_conf.c ****   *            @arg EP_TYPE_BULK: Bulk type
 392:USB_HOST/Target/usbh_conf.c ****   *            @arg EP_TYPE_INTR: Interrupt type
 393:USB_HOST/Target/usbh_conf.c ****   * @param  token : Endpoint Type
 394:USB_HOST/Target/usbh_conf.c ****   *          This parameter can be one of the these values:
 395:USB_HOST/Target/usbh_conf.c ****   *            @arg 0: PID_SETUP
 396:USB_HOST/Target/usbh_conf.c ****   *            @arg 1: PID_DATA
 397:USB_HOST/Target/usbh_conf.c ****   * @param  pbuff : pointer to URB data
 398:USB_HOST/Target/usbh_conf.c ****   * @param  length : Length of URB data
 399:USB_HOST/Target/usbh_conf.c ****   * @param  do_ping : activate do ping protocol (for high speed only)
 400:USB_HOST/Target/usbh_conf.c ****   *          This parameter can be one of the these values:
 401:USB_HOST/Target/usbh_conf.c ****   *           0 : do ping inactive
 402:USB_HOST/Target/usbh_conf.c ****   *           1 : do ping active
 403:USB_HOST/Target/usbh_conf.c ****   * @retval Status
 404:USB_HOST/Target/usbh_conf.c ****   */
 405:USB_HOST/Target/usbh_conf.c **** USBH_StatusTypeDef USBH_LL_SubmitURB(USBH_HandleTypeDef *phost, uint8_t pipe, uint8_t direction,
 406:USB_HOST/Target/usbh_conf.c ****                                      uint8_t ep_type, uint8_t token, uint8_t *pbuff, uint16_t lengt
 407:USB_HOST/Target/usbh_conf.c ****                                      uint8_t do_ping)
 408:USB_HOST/Target/usbh_conf.c **** {
 409:USB_HOST/Target/usbh_conf.c ****   HAL_StatusTypeDef hal_status = HAL_OK;
 410:USB_HOST/Target/usbh_conf.c ****   USBH_StatusTypeDef usb_status = USBH_OK;
 411:USB_HOST/Target/usbh_conf.c **** 
 412:USB_HOST/Target/usbh_conf.c ****   hal_status = HAL_HCD_HC_SubmitRequest(phost->pData, pipe, direction ,
 413:USB_HOST/Target/usbh_conf.c ****                                         ep_type, token, pbuff, length,
 414:USB_HOST/Target/usbh_conf.c ****                                         do_ping);
 415:USB_HOST/Target/usbh_conf.c ****   usb_status =  USBH_Get_USB_Status(hal_status);
 416:USB_HOST/Target/usbh_conf.c **** 
 417:USB_HOST/Target/usbh_conf.c ****   return usb_status;
 418:USB_HOST/Target/usbh_conf.c **** }
 419:USB_HOST/Target/usbh_conf.c **** 
 420:USB_HOST/Target/usbh_conf.c **** /**
 421:USB_HOST/Target/usbh_conf.c ****   * @brief  Get a URB state from the low level driver.
 422:USB_HOST/Target/usbh_conf.c ****   * @param  phost: Host handle
 423:USB_HOST/Target/usbh_conf.c ****   * @param  pipe: Pipe index
 424:USB_HOST/Target/usbh_conf.c ****   *         This parameter can be a value from 1 to 15
 425:USB_HOST/Target/usbh_conf.c ****   * @retval URB state
 426:USB_HOST/Target/usbh_conf.c ****   *          This parameter can be one of the these values:
 427:USB_HOST/Target/usbh_conf.c ****   *            @arg URB_IDLE
 428:USB_HOST/Target/usbh_conf.c ****   *            @arg URB_DONE
 429:USB_HOST/Target/usbh_conf.c ****   *            @arg URB_NOTREADY
 430:USB_HOST/Target/usbh_conf.c ****   *            @arg URB_NYET
 431:USB_HOST/Target/usbh_conf.c ****   *            @arg URB_ERROR
 432:USB_HOST/Target/usbh_conf.c ****   *            @arg URB_STALL
 433:USB_HOST/Target/usbh_conf.c ****   */
 434:USB_HOST/Target/usbh_conf.c **** USBH_URBStateTypeDef USBH_LL_GetURBState(USBH_HandleTypeDef *phost, uint8_t pipe)
 435:USB_HOST/Target/usbh_conf.c **** {
 597              		.loc 1 435 1 is_stmt 1 view -0
 598              		.cfi_startproc
 599              		@ args = 0, pretend = 0, frame = 0
 600              		@ frame_needed = 0, uses_anonymous_args = 0
 601              		.loc 1 435 1 is_stmt 0 view .LVU132
 602 0000 08B5     		push	{r3, lr}
 603              	.LCFI13:
 604              		.cfi_def_cfa_offset 8
 605              		.cfi_offset 3, -8
 606              		.cfi_offset 14, -4
 436:USB_HOST/Target/usbh_conf.c ****   return (USBH_URBStateTypeDef)HAL_HCD_HC_GetURBState (phost->pData, pipe);
ARM GAS  C:\Users\ridel\AppData\Local\Temp\ccyWHXoc.s 			page 20


 607              		.loc 1 436 3 is_stmt 1 view .LVU133
 608              		.loc 1 436 32 is_stmt 0 view .LVU134
 609 0002 D0F8D003 		ldr	r0, [r0, #976]
 610              	.LVL49:
 611              		.loc 1 436 32 view .LVU135
 612 0006 FFF7FEFF 		bl	HAL_HCD_HC_GetURBState
 613              	.LVL50:
 437:USB_HOST/Target/usbh_conf.c **** }
 614              		.loc 1 437 1 view .LVU136
 615 000a 08BD     		pop	{r3, pc}
 616              		.cfi_endproc
 617              	.LFE155:
 619              		.section	.text.USBH_LL_DriverVBUS,"ax",%progbits
 620              		.align	1
 621              		.global	USBH_LL_DriverVBUS
 622              		.syntax unified
 623              		.thumb
 624              		.thumb_func
 626              	USBH_LL_DriverVBUS:
 627              	.LVL51:
 628              	.LFB156:
 438:USB_HOST/Target/usbh_conf.c **** 
 439:USB_HOST/Target/usbh_conf.c **** /**
 440:USB_HOST/Target/usbh_conf.c ****   * @brief  Drive VBUS.
 441:USB_HOST/Target/usbh_conf.c ****   * @param  phost: Host handle
 442:USB_HOST/Target/usbh_conf.c ****   * @param  state : VBUS state
 443:USB_HOST/Target/usbh_conf.c ****   *          This parameter can be one of the these values:
 444:USB_HOST/Target/usbh_conf.c ****   *           0 : VBUS Inactive
 445:USB_HOST/Target/usbh_conf.c ****   *           1 : VBUS Active
 446:USB_HOST/Target/usbh_conf.c ****   * @retval Status
 447:USB_HOST/Target/usbh_conf.c ****   */
 448:USB_HOST/Target/usbh_conf.c **** USBH_StatusTypeDef USBH_LL_DriverVBUS(USBH_HandleTypeDef *phost, uint8_t state)
 449:USB_HOST/Target/usbh_conf.c **** {
 629              		.loc 1 449 1 is_stmt 1 view -0
 630              		.cfi_startproc
 631              		@ args = 0, pretend = 0, frame = 0
 632              		@ frame_needed = 0, uses_anonymous_args = 0
 633              		.loc 1 449 1 is_stmt 0 view .LVU138
 634 0000 08B5     		push	{r3, lr}
 635              	.LCFI14:
 636              		.cfi_def_cfa_offset 8
 637              		.cfi_offset 3, -8
 638              		.cfi_offset 14, -4
 450:USB_HOST/Target/usbh_conf.c ****   if (phost->id == HOST_FS) {
 639              		.loc 1 450 3 is_stmt 1 view .LVU139
 640              		.loc 1 450 12 is_stmt 0 view .LVU140
 641 0002 90F8CC33 		ldrb	r3, [r0, #972]	@ zero_extendqisi2
 642              		.loc 1 450 6 view .LVU141
 643 0006 012B     		cmp	r3, #1
 644 0008 04D0     		beq	.L48
 645              	.LVL52:
 646              	.L46:
 451:USB_HOST/Target/usbh_conf.c ****     MX_DriverVbusFS(state);
 452:USB_HOST/Target/usbh_conf.c ****   }
 453:USB_HOST/Target/usbh_conf.c **** 
 454:USB_HOST/Target/usbh_conf.c ****   /* USER CODE BEGIN 0 */
 455:USB_HOST/Target/usbh_conf.c **** 
ARM GAS  C:\Users\ridel\AppData\Local\Temp\ccyWHXoc.s 			page 21


 456:USB_HOST/Target/usbh_conf.c ****   /* USER CODE END 0*/
 457:USB_HOST/Target/usbh_conf.c **** 
 458:USB_HOST/Target/usbh_conf.c ****   HAL_Delay(200);
 647              		.loc 1 458 3 is_stmt 1 view .LVU142
 648 000a C820     		movs	r0, #200
 649 000c FFF7FEFF 		bl	HAL_Delay
 650              	.LVL53:
 459:USB_HOST/Target/usbh_conf.c ****   return USBH_OK;
 651              		.loc 1 459 3 view .LVU143
 460:USB_HOST/Target/usbh_conf.c **** }
 652              		.loc 1 460 1 is_stmt 0 view .LVU144
 653 0010 0020     		movs	r0, #0
 654 0012 08BD     		pop	{r3, pc}
 655              	.LVL54:
 656              	.L48:
 451:USB_HOST/Target/usbh_conf.c ****     MX_DriverVbusFS(state);
 657              		.loc 1 451 5 is_stmt 1 view .LVU145
 658 0014 0846     		mov	r0, r1
 659              	.LVL55:
 451:USB_HOST/Target/usbh_conf.c ****     MX_DriverVbusFS(state);
 660              		.loc 1 451 5 is_stmt 0 view .LVU146
 661 0016 FFF7FEFF 		bl	MX_DriverVbusFS
 662              	.LVL56:
 451:USB_HOST/Target/usbh_conf.c ****     MX_DriverVbusFS(state);
 663              		.loc 1 451 5 view .LVU147
 664 001a F6E7     		b	.L46
 665              		.cfi_endproc
 666              	.LFE156:
 668              		.section	.text.USBH_LL_SetToggle,"ax",%progbits
 669              		.align	1
 670              		.global	USBH_LL_SetToggle
 671              		.syntax unified
 672              		.thumb
 673              		.thumb_func
 675              	USBH_LL_SetToggle:
 676              	.LVL57:
 677              	.LFB157:
 461:USB_HOST/Target/usbh_conf.c **** 
 462:USB_HOST/Target/usbh_conf.c **** /**
 463:USB_HOST/Target/usbh_conf.c ****   * @brief  Set toggle for a pipe.
 464:USB_HOST/Target/usbh_conf.c ****   * @param  phost: Host handle
 465:USB_HOST/Target/usbh_conf.c ****   * @param  pipe: Pipe index
 466:USB_HOST/Target/usbh_conf.c ****   * @param  toggle: toggle (0/1)
 467:USB_HOST/Target/usbh_conf.c ****   * @retval Status
 468:USB_HOST/Target/usbh_conf.c ****   */
 469:USB_HOST/Target/usbh_conf.c **** USBH_StatusTypeDef USBH_LL_SetToggle(USBH_HandleTypeDef *phost, uint8_t pipe, uint8_t toggle)
 470:USB_HOST/Target/usbh_conf.c **** {
 678              		.loc 1 470 1 is_stmt 1 view -0
 679              		.cfi_startproc
 680              		@ args = 0, pretend = 0, frame = 0
 681              		@ frame_needed = 0, uses_anonymous_args = 0
 682              		@ link register save eliminated.
 471:USB_HOST/Target/usbh_conf.c ****   HCD_HandleTypeDef *pHandle;
 683              		.loc 1 471 3 view .LVU149
 472:USB_HOST/Target/usbh_conf.c ****   pHandle = phost->pData;
 684              		.loc 1 472 3 view .LVU150
 685              		.loc 1 472 11 is_stmt 0 view .LVU151
ARM GAS  C:\Users\ridel\AppData\Local\Temp\ccyWHXoc.s 			page 22


 686 0000 D0F8D033 		ldr	r3, [r0, #976]
 687              	.LVL58:
 473:USB_HOST/Target/usbh_conf.c **** 
 474:USB_HOST/Target/usbh_conf.c ****   if(pHandle->hc[pipe].ep_is_in)
 688              		.loc 1 474 3 is_stmt 1 view .LVU152
 689              		.loc 1 474 23 is_stmt 0 view .LVU153
 690 0004 C1EB0110 		rsb	r0, r1, r1, lsl #4
 691              	.LVL59:
 692              		.loc 1 474 23 view .LVU154
 693 0008 03EB8000 		add	r0, r3, r0, lsl #2
 694 000c C07D     		ldrb	r0, [r0, #23]	@ zero_extendqisi2
 695              		.loc 1 474 5 view .LVU155
 696 000e 38B1     		cbz	r0, .L50
 475:USB_HOST/Target/usbh_conf.c ****   {
 476:USB_HOST/Target/usbh_conf.c ****     pHandle->hc[pipe].toggle_in = toggle;
 697              		.loc 1 476 5 is_stmt 1 view .LVU156
 698              		.loc 1 476 33 is_stmt 0 view .LVU157
 699 0010 C1EB0111 		rsb	r1, r1, r1, lsl #4
 700              	.LVL60:
 701              		.loc 1 476 33 view .LVU158
 702 0014 03EB8101 		add	r1, r3, r1, lsl #2
 703 0018 81F83C20 		strb	r2, [r1, #60]
 704              	.L51:
 477:USB_HOST/Target/usbh_conf.c ****   }
 478:USB_HOST/Target/usbh_conf.c ****   else
 479:USB_HOST/Target/usbh_conf.c ****   {
 480:USB_HOST/Target/usbh_conf.c ****     pHandle->hc[pipe].toggle_out = toggle;
 481:USB_HOST/Target/usbh_conf.c ****   }
 482:USB_HOST/Target/usbh_conf.c **** 
 483:USB_HOST/Target/usbh_conf.c ****   return USBH_OK;
 705              		.loc 1 483 3 is_stmt 1 view .LVU159
 484:USB_HOST/Target/usbh_conf.c **** }
 706              		.loc 1 484 1 is_stmt 0 view .LVU160
 707 001c 0020     		movs	r0, #0
 708 001e 7047     		bx	lr
 709              	.LVL61:
 710              	.L50:
 480:USB_HOST/Target/usbh_conf.c ****   }
 711              		.loc 1 480 5 is_stmt 1 view .LVU161
 480:USB_HOST/Target/usbh_conf.c ****   }
 712              		.loc 1 480 34 is_stmt 0 view .LVU162
 713 0020 C1EB0111 		rsb	r1, r1, r1, lsl #4
 714              	.LVL62:
 480:USB_HOST/Target/usbh_conf.c ****   }
 715              		.loc 1 480 34 view .LVU163
 716 0024 03EB8101 		add	r1, r3, r1, lsl #2
 717 0028 81F83D20 		strb	r2, [r1, #61]
 718 002c F6E7     		b	.L51
 719              		.cfi_endproc
 720              	.LFE157:
 722              		.section	.text.USBH_LL_GetToggle,"ax",%progbits
 723              		.align	1
 724              		.global	USBH_LL_GetToggle
 725              		.syntax unified
 726              		.thumb
 727              		.thumb_func
 729              	USBH_LL_GetToggle:
ARM GAS  C:\Users\ridel\AppData\Local\Temp\ccyWHXoc.s 			page 23


 730              	.LVL63:
 731              	.LFB158:
 485:USB_HOST/Target/usbh_conf.c **** 
 486:USB_HOST/Target/usbh_conf.c **** /**
 487:USB_HOST/Target/usbh_conf.c ****   * @brief  Return the current toggle of a pipe.
 488:USB_HOST/Target/usbh_conf.c ****   * @param  phost: Host handle
 489:USB_HOST/Target/usbh_conf.c ****   * @param  pipe: Pipe index
 490:USB_HOST/Target/usbh_conf.c ****   * @retval toggle (0/1)
 491:USB_HOST/Target/usbh_conf.c ****   */
 492:USB_HOST/Target/usbh_conf.c **** uint8_t USBH_LL_GetToggle(USBH_HandleTypeDef *phost, uint8_t pipe)
 493:USB_HOST/Target/usbh_conf.c **** {
 732              		.loc 1 493 1 is_stmt 1 view -0
 733              		.cfi_startproc
 734              		@ args = 0, pretend = 0, frame = 0
 735              		@ frame_needed = 0, uses_anonymous_args = 0
 736              		@ link register save eliminated.
 494:USB_HOST/Target/usbh_conf.c ****   uint8_t toggle = 0;
 737              		.loc 1 494 3 view .LVU165
 495:USB_HOST/Target/usbh_conf.c ****   HCD_HandleTypeDef *pHandle;
 738              		.loc 1 495 3 view .LVU166
 496:USB_HOST/Target/usbh_conf.c ****   pHandle = phost->pData;
 739              		.loc 1 496 3 view .LVU167
 740              		.loc 1 496 11 is_stmt 0 view .LVU168
 741 0000 D0F8D033 		ldr	r3, [r0, #976]
 742              	.LVL64:
 497:USB_HOST/Target/usbh_conf.c **** 
 498:USB_HOST/Target/usbh_conf.c ****   if(pHandle->hc[pipe].ep_is_in)
 743              		.loc 1 498 3 is_stmt 1 view .LVU169
 744              		.loc 1 498 23 is_stmt 0 view .LVU170
 745 0004 C1EB0112 		rsb	r2, r1, r1, lsl #4
 746 0008 03EB8202 		add	r2, r3, r2, lsl #2
 747 000c D27D     		ldrb	r2, [r2, #23]	@ zero_extendqisi2
 748              		.loc 1 498 5 view .LVU171
 749 000e 32B1     		cbz	r2, .L53
 499:USB_HOST/Target/usbh_conf.c ****   {
 500:USB_HOST/Target/usbh_conf.c ****     toggle = pHandle->hc[pipe].toggle_in;
 750              		.loc 1 500 5 is_stmt 1 view .LVU172
 751              		.loc 1 500 12 is_stmt 0 view .LVU173
 752 0010 C1EB0111 		rsb	r1, r1, r1, lsl #4
 753              	.LVL65:
 754              		.loc 1 500 12 view .LVU174
 755 0014 03EB8101 		add	r1, r3, r1, lsl #2
 756 0018 91F83C00 		ldrb	r0, [r1, #60]	@ zero_extendqisi2
 757              	.LVL66:
 758              		.loc 1 500 12 view .LVU175
 759 001c 7047     		bx	lr
 760              	.LVL67:
 761              	.L53:
 501:USB_HOST/Target/usbh_conf.c ****   }
 502:USB_HOST/Target/usbh_conf.c ****   else
 503:USB_HOST/Target/usbh_conf.c ****   {
 504:USB_HOST/Target/usbh_conf.c ****     toggle = pHandle->hc[pipe].toggle_out;
 762              		.loc 1 504 5 is_stmt 1 view .LVU176
 763              		.loc 1 504 12 is_stmt 0 view .LVU177
 764 001e C1EB0111 		rsb	r1, r1, r1, lsl #4
 765              	.LVL68:
 766              		.loc 1 504 12 view .LVU178
ARM GAS  C:\Users\ridel\AppData\Local\Temp\ccyWHXoc.s 			page 24


 767 0022 03EB8101 		add	r1, r3, r1, lsl #2
 768 0026 91F83D00 		ldrb	r0, [r1, #61]	@ zero_extendqisi2
 769              	.LVL69:
 505:USB_HOST/Target/usbh_conf.c ****   }
 506:USB_HOST/Target/usbh_conf.c ****   return toggle;
 770              		.loc 1 506 3 is_stmt 1 view .LVU179
 507:USB_HOST/Target/usbh_conf.c **** }
 771              		.loc 1 507 1 is_stmt 0 view .LVU180
 772 002a 7047     		bx	lr
 773              		.cfi_endproc
 774              	.LFE158:
 776              		.section	.text.USBH_Delay,"ax",%progbits
 777              		.align	1
 778              		.global	USBH_Delay
 779              		.syntax unified
 780              		.thumb
 781              		.thumb_func
 783              	USBH_Delay:
 784              	.LVL70:
 785              	.LFB159:
 508:USB_HOST/Target/usbh_conf.c **** 
 509:USB_HOST/Target/usbh_conf.c **** /**
 510:USB_HOST/Target/usbh_conf.c ****   * @brief  Delay routine for the USB Host Library
 511:USB_HOST/Target/usbh_conf.c ****   * @param  Delay: Delay in ms
 512:USB_HOST/Target/usbh_conf.c ****   * @retval None
 513:USB_HOST/Target/usbh_conf.c ****   */
 514:USB_HOST/Target/usbh_conf.c **** void USBH_Delay(uint32_t Delay)
 515:USB_HOST/Target/usbh_conf.c **** {
 786              		.loc 1 515 1 is_stmt 1 view -0
 787              		.cfi_startproc
 788              		@ args = 0, pretend = 0, frame = 0
 789              		@ frame_needed = 0, uses_anonymous_args = 0
 790              		.loc 1 515 1 is_stmt 0 view .LVU182
 791 0000 08B5     		push	{r3, lr}
 792              	.LCFI15:
 793              		.cfi_def_cfa_offset 8
 794              		.cfi_offset 3, -8
 795              		.cfi_offset 14, -4
 516:USB_HOST/Target/usbh_conf.c ****   HAL_Delay(Delay);
 796              		.loc 1 516 3 is_stmt 1 view .LVU183
 797 0002 FFF7FEFF 		bl	HAL_Delay
 798              	.LVL71:
 517:USB_HOST/Target/usbh_conf.c **** }
 799              		.loc 1 517 1 is_stmt 0 view .LVU184
 800 0006 08BD     		pop	{r3, pc}
 801              		.cfi_endproc
 802              	.LFE159:
 804              		.section	.text.USBH_Get_USB_Status,"ax",%progbits
 805              		.align	1
 806              		.global	USBH_Get_USB_Status
 807              		.syntax unified
 808              		.thumb
 809              		.thumb_func
 811              	USBH_Get_USB_Status:
 812              	.LVL72:
 813              	.LFB160:
 518:USB_HOST/Target/usbh_conf.c **** 
ARM GAS  C:\Users\ridel\AppData\Local\Temp\ccyWHXoc.s 			page 25


 519:USB_HOST/Target/usbh_conf.c **** /**
 520:USB_HOST/Target/usbh_conf.c ****   * @brief  Returns the USB status depending on the HAL status:
 521:USB_HOST/Target/usbh_conf.c ****   * @param  hal_status: HAL status
 522:USB_HOST/Target/usbh_conf.c ****   * @retval USB status
 523:USB_HOST/Target/usbh_conf.c ****   */
 524:USB_HOST/Target/usbh_conf.c **** USBH_StatusTypeDef USBH_Get_USB_Status(HAL_StatusTypeDef hal_status)
 525:USB_HOST/Target/usbh_conf.c **** {
 814              		.loc 1 525 1 is_stmt 1 view -0
 815              		.cfi_startproc
 816              		@ args = 0, pretend = 0, frame = 0
 817              		@ frame_needed = 0, uses_anonymous_args = 0
 818              		@ link register save eliminated.
 526:USB_HOST/Target/usbh_conf.c ****   USBH_StatusTypeDef usb_status = USBH_OK;
 819              		.loc 1 526 3 view .LVU186
 527:USB_HOST/Target/usbh_conf.c **** 
 528:USB_HOST/Target/usbh_conf.c ****   switch (hal_status)
 820              		.loc 1 528 3 view .LVU187
 821 0000 0228     		cmp	r0, #2
 822 0002 05D8     		bhi	.L62
 823 0004 DFE800F0 		tbb	[pc, r0]
 824              	.L60:
 825 0008 05       		.byte	(.L58-.L60)/2
 826 0009 04       		.byte	(.L62-.L60)/2
 827 000a 02       		.byte	(.L59-.L60)/2
 828 000b 00       		.p2align 1
 829              	.L59:
 529:USB_HOST/Target/usbh_conf.c ****   {
 530:USB_HOST/Target/usbh_conf.c ****     case HAL_OK :
 531:USB_HOST/Target/usbh_conf.c ****       usb_status = USBH_OK;
 532:USB_HOST/Target/usbh_conf.c ****     break;
 533:USB_HOST/Target/usbh_conf.c ****     case HAL_ERROR :
 534:USB_HOST/Target/usbh_conf.c ****       usb_status = USBH_FAIL;
 535:USB_HOST/Target/usbh_conf.c ****     break;
 536:USB_HOST/Target/usbh_conf.c ****     case HAL_BUSY :
 537:USB_HOST/Target/usbh_conf.c ****       usb_status = USBH_BUSY;
 830              		.loc 1 537 7 view .LVU188
 831              	.LVL73:
 538:USB_HOST/Target/usbh_conf.c ****     break;
 832              		.loc 1 538 5 view .LVU189
 537:USB_HOST/Target/usbh_conf.c ****     break;
 833              		.loc 1 537 18 is_stmt 0 view .LVU190
 834 000c 0120     		movs	r0, #1
 835              	.LVL74:
 836              		.loc 1 538 5 view .LVU191
 837 000e 7047     		bx	lr
 838              	.LVL75:
 839              	.L62:
 534:USB_HOST/Target/usbh_conf.c ****     break;
 840              		.loc 1 534 18 view .LVU192
 841 0010 0220     		movs	r0, #2
 842              	.LVL76:
 843              	.L58:
 539:USB_HOST/Target/usbh_conf.c ****     case HAL_TIMEOUT :
 540:USB_HOST/Target/usbh_conf.c ****       usb_status = USBH_FAIL;
 541:USB_HOST/Target/usbh_conf.c ****     break;
 542:USB_HOST/Target/usbh_conf.c ****     default :
 543:USB_HOST/Target/usbh_conf.c ****       usb_status = USBH_FAIL;
ARM GAS  C:\Users\ridel\AppData\Local\Temp\ccyWHXoc.s 			page 26


 544:USB_HOST/Target/usbh_conf.c ****     break;
 545:USB_HOST/Target/usbh_conf.c ****   }
 546:USB_HOST/Target/usbh_conf.c ****   return usb_status;
 844              		.loc 1 546 3 is_stmt 1 view .LVU193
 547:USB_HOST/Target/usbh_conf.c **** }
 845              		.loc 1 547 1 is_stmt 0 view .LVU194
 846 0012 7047     		bx	lr
 847              		.cfi_endproc
 848              	.LFE160:
 850              		.section	.text.USBH_LL_DeInit,"ax",%progbits
 851              		.align	1
 852              		.global	USBH_LL_DeInit
 853              		.syntax unified
 854              		.thumb
 855              		.thumb_func
 857              	USBH_LL_DeInit:
 858              	.LVL77:
 859              	.LFB146:
 232:USB_HOST/Target/usbh_conf.c ****   HAL_StatusTypeDef hal_status = HAL_OK;
 860              		.loc 1 232 1 is_stmt 1 view -0
 861              		.cfi_startproc
 862              		@ args = 0, pretend = 0, frame = 0
 863              		@ frame_needed = 0, uses_anonymous_args = 0
 232:USB_HOST/Target/usbh_conf.c ****   HAL_StatusTypeDef hal_status = HAL_OK;
 864              		.loc 1 232 1 is_stmt 0 view .LVU196
 865 0000 08B5     		push	{r3, lr}
 866              	.LCFI16:
 867              		.cfi_def_cfa_offset 8
 868              		.cfi_offset 3, -8
 869              		.cfi_offset 14, -4
 233:USB_HOST/Target/usbh_conf.c ****   USBH_StatusTypeDef usb_status = USBH_OK;
 870              		.loc 1 233 3 is_stmt 1 view .LVU197
 871              	.LVL78:
 234:USB_HOST/Target/usbh_conf.c **** 
 872              		.loc 1 234 3 view .LVU198
 236:USB_HOST/Target/usbh_conf.c **** 
 873              		.loc 1 236 3 view .LVU199
 236:USB_HOST/Target/usbh_conf.c **** 
 874              		.loc 1 236 16 is_stmt 0 view .LVU200
 875 0002 D0F8D003 		ldr	r0, [r0, #976]
 876              	.LVL79:
 236:USB_HOST/Target/usbh_conf.c **** 
 877              		.loc 1 236 16 view .LVU201
 878 0006 FFF7FEFF 		bl	HAL_HCD_DeInit
 879              	.LVL80:
 238:USB_HOST/Target/usbh_conf.c **** 
 880              		.loc 1 238 3 is_stmt 1 view .LVU202
 238:USB_HOST/Target/usbh_conf.c **** 
 881              		.loc 1 238 16 is_stmt 0 view .LVU203
 882 000a FFF7FEFF 		bl	USBH_Get_USB_Status
 883              	.LVL81:
 240:USB_HOST/Target/usbh_conf.c **** }
 884              		.loc 1 240 3 is_stmt 1 view .LVU204
 241:USB_HOST/Target/usbh_conf.c **** 
 885              		.loc 1 241 1 is_stmt 0 view .LVU205
 886 000e 08BD     		pop	{r3, pc}
 887              		.cfi_endproc
ARM GAS  C:\Users\ridel\AppData\Local\Temp\ccyWHXoc.s 			page 27


 888              	.LFE146:
 890              		.section	.text.USBH_LL_Start,"ax",%progbits
 891              		.align	1
 892              		.global	USBH_LL_Start
 893              		.syntax unified
 894              		.thumb
 895              		.thumb_func
 897              	USBH_LL_Start:
 898              	.LVL82:
 899              	.LFB147:
 249:USB_HOST/Target/usbh_conf.c ****   HAL_StatusTypeDef hal_status = HAL_OK;
 900              		.loc 1 249 1 is_stmt 1 view -0
 901              		.cfi_startproc
 902              		@ args = 0, pretend = 0, frame = 0
 903              		@ frame_needed = 0, uses_anonymous_args = 0
 249:USB_HOST/Target/usbh_conf.c ****   HAL_StatusTypeDef hal_status = HAL_OK;
 904              		.loc 1 249 1 is_stmt 0 view .LVU207
 905 0000 08B5     		push	{r3, lr}
 906              	.LCFI17:
 907              		.cfi_def_cfa_offset 8
 908              		.cfi_offset 3, -8
 909              		.cfi_offset 14, -4
 250:USB_HOST/Target/usbh_conf.c ****   USBH_StatusTypeDef usb_status = USBH_OK;
 910              		.loc 1 250 3 is_stmt 1 view .LVU208
 911              	.LVL83:
 251:USB_HOST/Target/usbh_conf.c **** 
 912              		.loc 1 251 3 view .LVU209
 253:USB_HOST/Target/usbh_conf.c **** 
 913              		.loc 1 253 3 view .LVU210
 253:USB_HOST/Target/usbh_conf.c **** 
 914              		.loc 1 253 16 is_stmt 0 view .LVU211
 915 0002 D0F8D003 		ldr	r0, [r0, #976]
 916              	.LVL84:
 253:USB_HOST/Target/usbh_conf.c **** 
 917              		.loc 1 253 16 view .LVU212
 918 0006 FFF7FEFF 		bl	HAL_HCD_Start
 919              	.LVL85:
 255:USB_HOST/Target/usbh_conf.c **** 
 920              		.loc 1 255 3 is_stmt 1 view .LVU213
 255:USB_HOST/Target/usbh_conf.c **** 
 921              		.loc 1 255 16 is_stmt 0 view .LVU214
 922 000a FFF7FEFF 		bl	USBH_Get_USB_Status
 923              	.LVL86:
 257:USB_HOST/Target/usbh_conf.c **** }
 924              		.loc 1 257 3 is_stmt 1 view .LVU215
 258:USB_HOST/Target/usbh_conf.c **** 
 925              		.loc 1 258 1 is_stmt 0 view .LVU216
 926 000e 08BD     		pop	{r3, pc}
 927              		.cfi_endproc
 928              	.LFE147:
 930              		.section	.text.USBH_LL_Stop,"ax",%progbits
 931              		.align	1
 932              		.global	USBH_LL_Stop
 933              		.syntax unified
 934              		.thumb
 935              		.thumb_func
 937              	USBH_LL_Stop:
ARM GAS  C:\Users\ridel\AppData\Local\Temp\ccyWHXoc.s 			page 28


 938              	.LVL87:
 939              	.LFB148:
 266:USB_HOST/Target/usbh_conf.c ****   HAL_StatusTypeDef hal_status = HAL_OK;
 940              		.loc 1 266 1 is_stmt 1 view -0
 941              		.cfi_startproc
 942              		@ args = 0, pretend = 0, frame = 0
 943              		@ frame_needed = 0, uses_anonymous_args = 0
 266:USB_HOST/Target/usbh_conf.c ****   HAL_StatusTypeDef hal_status = HAL_OK;
 944              		.loc 1 266 1 is_stmt 0 view .LVU218
 945 0000 08B5     		push	{r3, lr}
 946              	.LCFI18:
 947              		.cfi_def_cfa_offset 8
 948              		.cfi_offset 3, -8
 949              		.cfi_offset 14, -4
 267:USB_HOST/Target/usbh_conf.c ****   USBH_StatusTypeDef usb_status = USBH_OK;
 950              		.loc 1 267 3 is_stmt 1 view .LVU219
 951              	.LVL88:
 268:USB_HOST/Target/usbh_conf.c **** 
 952              		.loc 1 268 3 view .LVU220
 270:USB_HOST/Target/usbh_conf.c **** 
 953              		.loc 1 270 3 view .LVU221
 270:USB_HOST/Target/usbh_conf.c **** 
 954              		.loc 1 270 16 is_stmt 0 view .LVU222
 955 0002 D0F8D003 		ldr	r0, [r0, #976]
 956              	.LVL89:
 270:USB_HOST/Target/usbh_conf.c **** 
 957              		.loc 1 270 16 view .LVU223
 958 0006 FFF7FEFF 		bl	HAL_HCD_Stop
 959              	.LVL90:
 272:USB_HOST/Target/usbh_conf.c **** 
 960              		.loc 1 272 3 is_stmt 1 view .LVU224
 272:USB_HOST/Target/usbh_conf.c **** 
 961              		.loc 1 272 16 is_stmt 0 view .LVU225
 962 000a FFF7FEFF 		bl	USBH_Get_USB_Status
 963              	.LVL91:
 274:USB_HOST/Target/usbh_conf.c **** }
 964              		.loc 1 274 3 is_stmt 1 view .LVU226
 275:USB_HOST/Target/usbh_conf.c **** 
 965              		.loc 1 275 1 is_stmt 0 view .LVU227
 966 000e 08BD     		pop	{r3, pc}
 967              		.cfi_endproc
 968              	.LFE148:
 970              		.section	.text.USBH_LL_ResetPort,"ax",%progbits
 971              		.align	1
 972              		.global	USBH_LL_ResetPort
 973              		.syntax unified
 974              		.thumb
 975              		.thumb_func
 977              	USBH_LL_ResetPort:
 978              	.LVL92:
 979              	.LFB150:
 313:USB_HOST/Target/usbh_conf.c ****   HAL_StatusTypeDef hal_status = HAL_OK;
 980              		.loc 1 313 1 is_stmt 1 view -0
 981              		.cfi_startproc
 982              		@ args = 0, pretend = 0, frame = 0
 983              		@ frame_needed = 0, uses_anonymous_args = 0
 313:USB_HOST/Target/usbh_conf.c ****   HAL_StatusTypeDef hal_status = HAL_OK;
ARM GAS  C:\Users\ridel\AppData\Local\Temp\ccyWHXoc.s 			page 29


 984              		.loc 1 313 1 is_stmt 0 view .LVU229
 985 0000 08B5     		push	{r3, lr}
 986              	.LCFI19:
 987              		.cfi_def_cfa_offset 8
 988              		.cfi_offset 3, -8
 989              		.cfi_offset 14, -4
 314:USB_HOST/Target/usbh_conf.c ****   USBH_StatusTypeDef usb_status = USBH_OK;
 990              		.loc 1 314 3 is_stmt 1 view .LVU230
 991              	.LVL93:
 315:USB_HOST/Target/usbh_conf.c **** 
 992              		.loc 1 315 3 view .LVU231
 317:USB_HOST/Target/usbh_conf.c **** 
 993              		.loc 1 317 3 view .LVU232
 317:USB_HOST/Target/usbh_conf.c **** 
 994              		.loc 1 317 16 is_stmt 0 view .LVU233
 995 0002 D0F8D003 		ldr	r0, [r0, #976]
 996              	.LVL94:
 317:USB_HOST/Target/usbh_conf.c **** 
 997              		.loc 1 317 16 view .LVU234
 998 0006 FFF7FEFF 		bl	HAL_HCD_ResetPort
 999              	.LVL95:
 319:USB_HOST/Target/usbh_conf.c **** 
 1000              		.loc 1 319 3 is_stmt 1 view .LVU235
 319:USB_HOST/Target/usbh_conf.c **** 
 1001              		.loc 1 319 16 is_stmt 0 view .LVU236
 1002 000a FFF7FEFF 		bl	USBH_Get_USB_Status
 1003              	.LVL96:
 321:USB_HOST/Target/usbh_conf.c **** }
 1004              		.loc 1 321 3 is_stmt 1 view .LVU237
 322:USB_HOST/Target/usbh_conf.c **** 
 1005              		.loc 1 322 1 is_stmt 0 view .LVU238
 1006 000e 08BD     		pop	{r3, pc}
 1007              		.cfi_endproc
 1008              	.LFE150:
 1010              		.section	.text.USBH_LL_OpenPipe,"ax",%progbits
 1011              		.align	1
 1012              		.global	USBH_LL_OpenPipe
 1013              		.syntax unified
 1014              		.thumb
 1015              		.thumb_func
 1017              	USBH_LL_OpenPipe:
 1018              	.LVL97:
 1019              	.LFB152:
 348:USB_HOST/Target/usbh_conf.c ****   HAL_StatusTypeDef hal_status = HAL_OK;
 1020              		.loc 1 348 1 is_stmt 1 view -0
 1021              		.cfi_startproc
 1022              		@ args = 12, pretend = 0, frame = 0
 1023              		@ frame_needed = 0, uses_anonymous_args = 0
 348:USB_HOST/Target/usbh_conf.c ****   HAL_StatusTypeDef hal_status = HAL_OK;
 1024              		.loc 1 348 1 is_stmt 0 view .LVU240
 1025 0000 10B5     		push	{r4, lr}
 1026              	.LCFI20:
 1027              		.cfi_def_cfa_offset 8
 1028              		.cfi_offset 4, -8
 1029              		.cfi_offset 14, -4
 1030 0002 84B0     		sub	sp, sp, #16
 1031              	.LCFI21:
ARM GAS  C:\Users\ridel\AppData\Local\Temp\ccyWHXoc.s 			page 30


 1032              		.cfi_def_cfa_offset 24
 349:USB_HOST/Target/usbh_conf.c ****   USBH_StatusTypeDef usb_status = USBH_OK;
 1033              		.loc 1 349 3 is_stmt 1 view .LVU241
 1034              	.LVL98:
 350:USB_HOST/Target/usbh_conf.c **** 
 1035              		.loc 1 350 3 view .LVU242
 352:USB_HOST/Target/usbh_conf.c ****                                dev_address, speed, ep_type, mps);
 1036              		.loc 1 352 3 view .LVU243
 352:USB_HOST/Target/usbh_conf.c ****                                dev_address, speed, ep_type, mps);
 1037              		.loc 1 352 37 is_stmt 0 view .LVU244
 1038 0004 D0F8D003 		ldr	r0, [r0, #976]
 1039              	.LVL99:
 352:USB_HOST/Target/usbh_conf.c ****                                dev_address, speed, ep_type, mps);
 1040              		.loc 1 352 16 view .LVU245
 1041 0008 BDF82040 		ldrh	r4, [sp, #32]
 1042 000c 0294     		str	r4, [sp, #8]
 1043 000e 9DF81C40 		ldrb	r4, [sp, #28]	@ zero_extendqisi2
 1044 0012 0194     		str	r4, [sp, #4]
 1045 0014 9DF81840 		ldrb	r4, [sp, #24]	@ zero_extendqisi2
 1046 0018 0094     		str	r4, [sp]
 1047 001a FFF7FEFF 		bl	HAL_HCD_HC_Init
 1048              	.LVL100:
 355:USB_HOST/Target/usbh_conf.c **** 
 1049              		.loc 1 355 3 is_stmt 1 view .LVU246
 355:USB_HOST/Target/usbh_conf.c **** 
 1050              		.loc 1 355 16 is_stmt 0 view .LVU247
 1051 001e FFF7FEFF 		bl	USBH_Get_USB_Status
 1052              	.LVL101:
 357:USB_HOST/Target/usbh_conf.c **** }
 1053              		.loc 1 357 3 is_stmt 1 view .LVU248
 358:USB_HOST/Target/usbh_conf.c **** 
 1054              		.loc 1 358 1 is_stmt 0 view .LVU249
 1055 0022 04B0     		add	sp, sp, #16
 1056              	.LCFI22:
 1057              		.cfi_def_cfa_offset 8
 1058              		@ sp needed
 1059 0024 10BD     		pop	{r4, pc}
 358:USB_HOST/Target/usbh_conf.c **** 
 1060              		.loc 1 358 1 view .LVU250
 1061              		.cfi_endproc
 1062              	.LFE152:
 1064              		.section	.text.USBH_LL_ClosePipe,"ax",%progbits
 1065              		.align	1
 1066              		.global	USBH_LL_ClosePipe
 1067              		.syntax unified
 1068              		.thumb
 1069              		.thumb_func
 1071              	USBH_LL_ClosePipe:
 1072              	.LVL102:
 1073              	.LFB153:
 367:USB_HOST/Target/usbh_conf.c ****   HAL_StatusTypeDef hal_status = HAL_OK;
 1074              		.loc 1 367 1 is_stmt 1 view -0
 1075              		.cfi_startproc
 1076              		@ args = 0, pretend = 0, frame = 0
 1077              		@ frame_needed = 0, uses_anonymous_args = 0
 367:USB_HOST/Target/usbh_conf.c ****   HAL_StatusTypeDef hal_status = HAL_OK;
 1078              		.loc 1 367 1 is_stmt 0 view .LVU252
ARM GAS  C:\Users\ridel\AppData\Local\Temp\ccyWHXoc.s 			page 31


 1079 0000 08B5     		push	{r3, lr}
 1080              	.LCFI23:
 1081              		.cfi_def_cfa_offset 8
 1082              		.cfi_offset 3, -8
 1083              		.cfi_offset 14, -4
 368:USB_HOST/Target/usbh_conf.c ****   USBH_StatusTypeDef usb_status = USBH_OK;
 1084              		.loc 1 368 3 is_stmt 1 view .LVU253
 1085              	.LVL103:
 369:USB_HOST/Target/usbh_conf.c **** 
 1086              		.loc 1 369 3 view .LVU254
 371:USB_HOST/Target/usbh_conf.c **** 
 1087              		.loc 1 371 3 view .LVU255
 371:USB_HOST/Target/usbh_conf.c **** 
 1088              		.loc 1 371 16 is_stmt 0 view .LVU256
 1089 0002 D0F8D003 		ldr	r0, [r0, #976]
 1090              	.LVL104:
 371:USB_HOST/Target/usbh_conf.c **** 
 1091              		.loc 1 371 16 view .LVU257
 1092 0006 FFF7FEFF 		bl	HAL_HCD_HC_Halt
 1093              	.LVL105:
 373:USB_HOST/Target/usbh_conf.c **** 
 1094              		.loc 1 373 3 is_stmt 1 view .LVU258
 373:USB_HOST/Target/usbh_conf.c **** 
 1095              		.loc 1 373 16 is_stmt 0 view .LVU259
 1096 000a FFF7FEFF 		bl	USBH_Get_USB_Status
 1097              	.LVL106:
 375:USB_HOST/Target/usbh_conf.c **** }
 1098              		.loc 1 375 3 is_stmt 1 view .LVU260
 376:USB_HOST/Target/usbh_conf.c **** 
 1099              		.loc 1 376 1 is_stmt 0 view .LVU261
 1100 000e 08BD     		pop	{r3, pc}
 1101              		.cfi_endproc
 1102              	.LFE153:
 1104              		.section	.text.USBH_LL_SubmitURB,"ax",%progbits
 1105              		.align	1
 1106              		.global	USBH_LL_SubmitURB
 1107              		.syntax unified
 1108              		.thumb
 1109              		.thumb_func
 1111              	USBH_LL_SubmitURB:
 1112              	.LVL107:
 1113              	.LFB154:
 408:USB_HOST/Target/usbh_conf.c ****   HAL_StatusTypeDef hal_status = HAL_OK;
 1114              		.loc 1 408 1 is_stmt 1 view -0
 1115              		.cfi_startproc
 1116              		@ args = 16, pretend = 0, frame = 0
 1117              		@ frame_needed = 0, uses_anonymous_args = 0
 408:USB_HOST/Target/usbh_conf.c ****   HAL_StatusTypeDef hal_status = HAL_OK;
 1118              		.loc 1 408 1 is_stmt 0 view .LVU263
 1119 0000 10B5     		push	{r4, lr}
 1120              	.LCFI24:
 1121              		.cfi_def_cfa_offset 8
 1122              		.cfi_offset 4, -8
 1123              		.cfi_offset 14, -4
 1124 0002 84B0     		sub	sp, sp, #16
 1125              	.LCFI25:
 1126              		.cfi_def_cfa_offset 24
ARM GAS  C:\Users\ridel\AppData\Local\Temp\ccyWHXoc.s 			page 32


 409:USB_HOST/Target/usbh_conf.c ****   USBH_StatusTypeDef usb_status = USBH_OK;
 1127              		.loc 1 409 3 is_stmt 1 view .LVU264
 1128              	.LVL108:
 410:USB_HOST/Target/usbh_conf.c **** 
 1129              		.loc 1 410 3 view .LVU265
 412:USB_HOST/Target/usbh_conf.c ****                                         ep_type, token, pbuff, length,
 1130              		.loc 1 412 3 view .LVU266
 412:USB_HOST/Target/usbh_conf.c ****                                         ep_type, token, pbuff, length,
 1131              		.loc 1 412 46 is_stmt 0 view .LVU267
 1132 0004 D0F8D003 		ldr	r0, [r0, #976]
 1133              	.LVL109:
 412:USB_HOST/Target/usbh_conf.c ****                                         ep_type, token, pbuff, length,
 1134              		.loc 1 412 16 view .LVU268
 1135 0008 9DF82440 		ldrb	r4, [sp, #36]	@ zero_extendqisi2
 1136 000c 0394     		str	r4, [sp, #12]
 1137 000e BDF82040 		ldrh	r4, [sp, #32]
 1138 0012 0294     		str	r4, [sp, #8]
 1139 0014 079C     		ldr	r4, [sp, #28]
 1140 0016 0194     		str	r4, [sp, #4]
 1141 0018 9DF81840 		ldrb	r4, [sp, #24]	@ zero_extendqisi2
 1142 001c 0094     		str	r4, [sp]
 1143 001e FFF7FEFF 		bl	HAL_HCD_HC_SubmitRequest
 1144              	.LVL110:
 415:USB_HOST/Target/usbh_conf.c **** 
 1145              		.loc 1 415 3 is_stmt 1 view .LVU269
 415:USB_HOST/Target/usbh_conf.c **** 
 1146              		.loc 1 415 17 is_stmt 0 view .LVU270
 1147 0022 FFF7FEFF 		bl	USBH_Get_USB_Status
 1148              	.LVL111:
 417:USB_HOST/Target/usbh_conf.c **** }
 1149              		.loc 1 417 3 is_stmt 1 view .LVU271
 418:USB_HOST/Target/usbh_conf.c **** 
 1150              		.loc 1 418 1 is_stmt 0 view .LVU272
 1151 0026 04B0     		add	sp, sp, #16
 1152              	.LCFI26:
 1153              		.cfi_def_cfa_offset 8
 1154              		@ sp needed
 1155 0028 10BD     		pop	{r4, pc}
 418:USB_HOST/Target/usbh_conf.c **** 
 1156              		.loc 1 418 1 view .LVU273
 1157              		.cfi_endproc
 1158              	.LFE154:
 1160              		.global	hhcd_USB_OTG_FS
 1161              		.section	.bss.hhcd_USB_OTG_FS,"aw",%nobits
 1162              		.align	2
 1163              		.set	.LANCHOR0,. + 0
 1166              	hhcd_USB_OTG_FS:
 1167 0000 00000000 		.space	992
 1167      00000000 
 1167      00000000 
 1167      00000000 
 1167      00000000 
 1168              		.text
 1169              	.Letext0:
 1170              		.file 2 "c:\\dev\\tools\\gcc-arm-none-eabi-10.3-2021.10\\arm-none-eabi\\include\\machine\\_default
 1171              		.file 3 "c:\\dev\\tools\\gcc-arm-none-eabi-10.3-2021.10\\arm-none-eabi\\include\\sys\\_stdint.h"
 1172              		.file 4 "Drivers/CMSIS/Device/ST/STM32F4xx/Include/stm32f407xx.h"
ARM GAS  C:\Users\ridel\AppData\Local\Temp\ccyWHXoc.s 			page 33


 1173              		.file 5 "Drivers/CMSIS/Device/ST/STM32F4xx/Include/stm32f4xx.h"
 1174              		.file 6 "Drivers/STM32F4xx_HAL_Driver/Inc/stm32f4xx_hal_def.h"
 1175              		.file 7 "Drivers/STM32F4xx_HAL_Driver/Inc/stm32f4xx_hal_gpio.h"
 1176              		.file 8 "Drivers/STM32F4xx_HAL_Driver/Inc/stm32f4xx_ll_usb.h"
 1177              		.file 9 "Drivers/STM32F4xx_HAL_Driver/Inc/stm32f4xx_hal_hcd.h"
 1178              		.file 10 "Middlewares/ST/STM32_USB_Host_Library/Core/Inc/usbh_def.h"
 1179              		.file 11 "Drivers/STM32F4xx_HAL_Driver/Inc/stm32f4xx_hal.h"
 1180              		.file 12 "USB_HOST/Target/usbh_platform.h"
 1181              		.file 13 "Middlewares/ST/STM32_USB_Host_Library/Core/Inc/usbh_core.h"
 1182              		.file 14 "Drivers/STM32F4xx_HAL_Driver/Inc/stm32f4xx_hal_cortex.h"
ARM GAS  C:\Users\ridel\AppData\Local\Temp\ccyWHXoc.s 			page 34

